
a.out:     file format elf32-littleriscv


Disassembly of section .text:

00010094 <main>:
   10094:	ff010113          	addi	sp,sp,-16
   10098:	00112623          	sw	ra,12(sp)
   1009c:	06400793          	li	a5,100
   100a0:	00100593          	li	a1,1
   100a4:	00100713          	li	a4,1
   100a8:	00058693          	mv	a3,a1
   100ac:	fff78793          	addi	a5,a5,-1
   100b0:	00e585b3          	add	a1,a1,a4
   100b4:	00068713          	mv	a4,a3
   100b8:	fe0798e3          	bnez	a5,100a8 <main+0x14>
   100bc:	00000073          	ecall
   100c0:	00026537          	lui	a0,0x26
   100c4:	bc050513          	addi	a0,a0,-1088 # 25bc0 <__clzsi2+0x88>
   100c8:	328000ef          	jal	ra,103f0 <printf>
   100cc:	00c12083          	lw	ra,12(sp)
   100d0:	00000513          	li	a0,0
   100d4:	01010113          	addi	sp,sp,16
   100d8:	00008067          	ret

000100dc <register_fini>:
   100dc:	00000793          	li	a5,0
   100e0:	00078863          	beqz	a5,100f0 <register_fini+0x14>
   100e4:	00003517          	auipc	a0,0x3
   100e8:	79c50513          	addi	a0,a0,1948 # 13880 <__libc_fini_array>
   100ec:	0c40306f          	j	131b0 <atexit>
   100f0:	00008067          	ret

000100f4 <_start>:
   100f4:	00017197          	auipc	gp,0x17
   100f8:	7cc18193          	addi	gp,gp,1996 # 278c0 <__global_pointer$>
   100fc:	1cc18513          	addi	a0,gp,460 # 27a8c <__malloc_max_total_mem>
   10100:	22818613          	addi	a2,gp,552 # 27ae8 <__BSS_END__>
   10104:	40a60633          	sub	a2,a2,a0
   10108:	00000593          	li	a1,0
   1010c:	1c8000ef          	jal	ra,102d4 <memset>
   10110:	00003517          	auipc	a0,0x3
   10114:	0a050513          	addi	a0,a0,160 # 131b0 <atexit>
   10118:	00050863          	beqz	a0,10128 <_start+0x34>
   1011c:	00003517          	auipc	a0,0x3
   10120:	76450513          	addi	a0,a0,1892 # 13880 <__libc_fini_array>
   10124:	08c030ef          	jal	ra,131b0 <atexit>
   10128:	118000ef          	jal	ra,10240 <__libc_init_array>
   1012c:	00012503          	lw	a0,0(sp)
   10130:	00410593          	addi	a1,sp,4
   10134:	00000613          	li	a2,0
   10138:	f5dff0ef          	jal	ra,10094 <main>
   1013c:	0d40006f          	j	10210 <exit>

00010140 <deregister_tm_clones>:
   10140:	19c18793          	addi	a5,gp,412 # 27a5c <__TMC_END__>
   10144:	19c18713          	addi	a4,gp,412 # 27a5c <__TMC_END__>
   10148:	00f70a63          	beq	a4,a5,1015c <deregister_tm_clones+0x1c>
   1014c:	00000793          	li	a5,0
   10150:	00078663          	beqz	a5,1015c <deregister_tm_clones+0x1c>
   10154:	19c18513          	addi	a0,gp,412 # 27a5c <__TMC_END__>
   10158:	00078067          	jr	a5
   1015c:	00008067          	ret

00010160 <register_tm_clones>:
   10160:	19c18793          	addi	a5,gp,412 # 27a5c <__TMC_END__>
   10164:	19c18593          	addi	a1,gp,412 # 27a5c <__TMC_END__>
   10168:	40f585b3          	sub	a1,a1,a5
   1016c:	4025d793          	srai	a5,a1,0x2
   10170:	01f5d593          	srli	a1,a1,0x1f
   10174:	00f585b3          	add	a1,a1,a5
   10178:	4015d593          	srai	a1,a1,0x1
   1017c:	00058a63          	beqz	a1,10190 <register_tm_clones+0x30>
   10180:	00000793          	li	a5,0
   10184:	00078663          	beqz	a5,10190 <register_tm_clones+0x30>
   10188:	19c18513          	addi	a0,gp,412 # 27a5c <__TMC_END__>
   1018c:	00078067          	jr	a5
   10190:	00008067          	ret

00010194 <__do_global_dtors_aux>:
   10194:	ff010113          	addi	sp,sp,-16
   10198:	00812423          	sw	s0,8(sp)
   1019c:	1e41c783          	lbu	a5,484(gp) # 27aa4 <completed.1>
   101a0:	00112623          	sw	ra,12(sp)
   101a4:	02079463          	bnez	a5,101cc <__do_global_dtors_aux+0x38>
   101a8:	f99ff0ef          	jal	ra,10140 <deregister_tm_clones>
   101ac:	00000793          	li	a5,0
   101b0:	00078a63          	beqz	a5,101c4 <__do_global_dtors_aux+0x30>
   101b4:	00027537          	lui	a0,0x27
   101b8:	00050513          	mv	a0,a0
   101bc:	00000097          	auipc	ra,0x0
   101c0:	000000e7          	jalr	zero # 0 <main-0x10094>
   101c4:	00100793          	li	a5,1
   101c8:	1ef18223          	sb	a5,484(gp) # 27aa4 <completed.1>
   101cc:	00c12083          	lw	ra,12(sp)
   101d0:	00812403          	lw	s0,8(sp)
   101d4:	01010113          	addi	sp,sp,16
   101d8:	00008067          	ret

000101dc <frame_dummy>:
   101dc:	00000793          	li	a5,0
   101e0:	02078663          	beqz	a5,1020c <frame_dummy+0x30>
   101e4:	00027537          	lui	a0,0x27
   101e8:	ff010113          	addi	sp,sp,-16
   101ec:	1e818593          	addi	a1,gp,488 # 27aa8 <object.0>
   101f0:	00050513          	mv	a0,a0
   101f4:	00112623          	sw	ra,12(sp)
   101f8:	00000097          	auipc	ra,0x0
   101fc:	000000e7          	jalr	zero # 0 <main-0x10094>
   10200:	00c12083          	lw	ra,12(sp)
   10204:	01010113          	addi	sp,sp,16
   10208:	f59ff06f          	j	10160 <register_tm_clones>
   1020c:	f55ff06f          	j	10160 <register_tm_clones>

00010210 <exit>:
   10210:	ff010113          	addi	sp,sp,-16
   10214:	00000593          	li	a1,0
   10218:	00812423          	sw	s0,8(sp)
   1021c:	00112623          	sw	ra,12(sp)
   10220:	00050413          	mv	s0,a0
   10224:	66d020ef          	jal	ra,13090 <__call_exitprocs>
   10228:	1b81a503          	lw	a0,440(gp) # 27a78 <_global_impure_ptr>
   1022c:	03c52783          	lw	a5,60(a0) # 2703c <__EH_FRAME_BEGIN__+0x3c>
   10230:	00078463          	beqz	a5,10238 <exit+0x28>
   10234:	000780e7          	jalr	a5
   10238:	00040513          	mv	a0,s0
   1023c:	018100ef          	jal	ra,20254 <_exit>

00010240 <__libc_init_array>:
   10240:	ff010113          	addi	sp,sp,-16
   10244:	00812423          	sw	s0,8(sp)
   10248:	01212023          	sw	s2,0(sp)
   1024c:	00017797          	auipc	a5,0x17
   10250:	e6878793          	addi	a5,a5,-408 # 270b4 <__init_array_start>
   10254:	00017417          	auipc	s0,0x17
   10258:	e6040413          	addi	s0,s0,-416 # 270b4 <__init_array_start>
   1025c:	00112623          	sw	ra,12(sp)
   10260:	00912223          	sw	s1,4(sp)
   10264:	40878933          	sub	s2,a5,s0
   10268:	02878063          	beq	a5,s0,10288 <__libc_init_array+0x48>
   1026c:	40295913          	srai	s2,s2,0x2
   10270:	00000493          	li	s1,0
   10274:	00042783          	lw	a5,0(s0)
   10278:	00148493          	addi	s1,s1,1
   1027c:	00440413          	addi	s0,s0,4
   10280:	000780e7          	jalr	a5
   10284:	ff24e8e3          	bltu	s1,s2,10274 <__libc_init_array+0x34>
   10288:	00017797          	auipc	a5,0x17
   1028c:	e3478793          	addi	a5,a5,-460 # 270bc <__do_global_dtors_aux_fini_array_entry>
   10290:	00017417          	auipc	s0,0x17
   10294:	e2440413          	addi	s0,s0,-476 # 270b4 <__init_array_start>
   10298:	40878933          	sub	s2,a5,s0
   1029c:	40295913          	srai	s2,s2,0x2
   102a0:	00878e63          	beq	a5,s0,102bc <__libc_init_array+0x7c>
   102a4:	00000493          	li	s1,0
   102a8:	00042783          	lw	a5,0(s0)
   102ac:	00148493          	addi	s1,s1,1
   102b0:	00440413          	addi	s0,s0,4
   102b4:	000780e7          	jalr	a5
   102b8:	ff24e8e3          	bltu	s1,s2,102a8 <__libc_init_array+0x68>
   102bc:	00c12083          	lw	ra,12(sp)
   102c0:	00812403          	lw	s0,8(sp)
   102c4:	00412483          	lw	s1,4(sp)
   102c8:	00012903          	lw	s2,0(sp)
   102cc:	01010113          	addi	sp,sp,16
   102d0:	00008067          	ret

000102d4 <memset>:
   102d4:	00f00313          	li	t1,15
   102d8:	00050713          	mv	a4,a0
   102dc:	02c37e63          	bgeu	t1,a2,10318 <memset+0x44>
   102e0:	00f77793          	andi	a5,a4,15
   102e4:	0a079063          	bnez	a5,10384 <memset+0xb0>
   102e8:	08059263          	bnez	a1,1036c <memset+0x98>
   102ec:	ff067693          	andi	a3,a2,-16
   102f0:	00f67613          	andi	a2,a2,15
   102f4:	00e686b3          	add	a3,a3,a4
   102f8:	00b72023          	sw	a1,0(a4)
   102fc:	00b72223          	sw	a1,4(a4)
   10300:	00b72423          	sw	a1,8(a4)
   10304:	00b72623          	sw	a1,12(a4)
   10308:	01070713          	addi	a4,a4,16
   1030c:	fed766e3          	bltu	a4,a3,102f8 <memset+0x24>
   10310:	00061463          	bnez	a2,10318 <memset+0x44>
   10314:	00008067          	ret
   10318:	40c306b3          	sub	a3,t1,a2
   1031c:	00269693          	slli	a3,a3,0x2
   10320:	00000297          	auipc	t0,0x0
   10324:	005686b3          	add	a3,a3,t0
   10328:	00c68067          	jr	12(a3)
   1032c:	00b70723          	sb	a1,14(a4)
   10330:	00b706a3          	sb	a1,13(a4)
   10334:	00b70623          	sb	a1,12(a4)
   10338:	00b705a3          	sb	a1,11(a4)
   1033c:	00b70523          	sb	a1,10(a4)
   10340:	00b704a3          	sb	a1,9(a4)
   10344:	00b70423          	sb	a1,8(a4)
   10348:	00b703a3          	sb	a1,7(a4)
   1034c:	00b70323          	sb	a1,6(a4)
   10350:	00b702a3          	sb	a1,5(a4)
   10354:	00b70223          	sb	a1,4(a4)
   10358:	00b701a3          	sb	a1,3(a4)
   1035c:	00b70123          	sb	a1,2(a4)
   10360:	00b700a3          	sb	a1,1(a4)
   10364:	00b70023          	sb	a1,0(a4)
   10368:	00008067          	ret
   1036c:	0ff5f593          	zext.b	a1,a1
   10370:	00859693          	slli	a3,a1,0x8
   10374:	00d5e5b3          	or	a1,a1,a3
   10378:	01059693          	slli	a3,a1,0x10
   1037c:	00d5e5b3          	or	a1,a1,a3
   10380:	f6dff06f          	j	102ec <memset+0x18>
   10384:	00279693          	slli	a3,a5,0x2
   10388:	00000297          	auipc	t0,0x0
   1038c:	005686b3          	add	a3,a3,t0
   10390:	00008293          	mv	t0,ra
   10394:	fa0680e7          	jalr	-96(a3)
   10398:	00028093          	mv	ra,t0
   1039c:	ff078793          	addi	a5,a5,-16
   103a0:	40f70733          	sub	a4,a4,a5
   103a4:	00f60633          	add	a2,a2,a5
   103a8:	f6c378e3          	bgeu	t1,a2,10318 <memset+0x44>
   103ac:	f3dff06f          	j	102e8 <memset+0x14>

000103b0 <_printf_r>:
   103b0:	fc010113          	addi	sp,sp,-64
   103b4:	02c12423          	sw	a2,40(sp)
   103b8:	02d12623          	sw	a3,44(sp)
   103bc:	02e12823          	sw	a4,48(sp)
   103c0:	02f12a23          	sw	a5,52(sp)
   103c4:	03012c23          	sw	a6,56(sp)
   103c8:	03112e23          	sw	a7,60(sp)
   103cc:	00058613          	mv	a2,a1
   103d0:	00852583          	lw	a1,8(a0)
   103d4:	02810693          	addi	a3,sp,40
   103d8:	00112e23          	sw	ra,28(sp)
   103dc:	00d12623          	sw	a3,12(sp)
   103e0:	05c000ef          	jal	ra,1043c <_vfprintf_r>
   103e4:	01c12083          	lw	ra,28(sp)
   103e8:	04010113          	addi	sp,sp,64
   103ec:	00008067          	ret

000103f0 <printf>:
   103f0:	fc010113          	addi	sp,sp,-64
   103f4:	02c12423          	sw	a2,40(sp)
   103f8:	02d12623          	sw	a3,44(sp)
   103fc:	1c01a303          	lw	t1,448(gp) # 27a80 <_impure_ptr>
   10400:	02b12223          	sw	a1,36(sp)
   10404:	02e12823          	sw	a4,48(sp)
   10408:	02f12a23          	sw	a5,52(sp)
   1040c:	03012c23          	sw	a6,56(sp)
   10410:	03112e23          	sw	a7,60(sp)
   10414:	00832583          	lw	a1,8(t1)
   10418:	02410693          	addi	a3,sp,36
   1041c:	00050613          	mv	a2,a0
   10420:	00030513          	mv	a0,t1
   10424:	00112e23          	sw	ra,28(sp)
   10428:	00d12623          	sw	a3,12(sp)
   1042c:	010000ef          	jal	ra,1043c <_vfprintf_r>
   10430:	01c12083          	lw	ra,28(sp)
   10434:	04010113          	addi	sp,sp,64
   10438:	00008067          	ret

0001043c <_vfprintf_r>:
   1043c:	e0010113          	addi	sp,sp,-512
   10440:	1e112e23          	sw	ra,508(sp)
   10444:	1e812c23          	sw	s0,504(sp)
   10448:	1f212823          	sw	s2,496(sp)
   1044c:	00b12623          	sw	a1,12(sp)
   10450:	00060913          	mv	s2,a2
   10454:	00d12c23          	sw	a3,24(sp)
   10458:	1e912a23          	sw	s1,500(sp)
   1045c:	1f312623          	sw	s3,492(sp)
   10460:	1f412423          	sw	s4,488(sp)
   10464:	1f512223          	sw	s5,484(sp)
   10468:	1f612023          	sw	s6,480(sp)
   1046c:	1d712e23          	sw	s7,476(sp)
   10470:	1d812c23          	sw	s8,472(sp)
   10474:	1d912a23          	sw	s9,468(sp)
   10478:	1da12823          	sw	s10,464(sp)
   1047c:	1db12623          	sw	s11,460(sp)
   10480:	00050413          	mv	s0,a0
   10484:	02a12623          	sw	a0,44(sp)
   10488:	68c060ef          	jal	ra,16b14 <_localeconv_r>
   1048c:	00052703          	lw	a4,0(a0)
   10490:	00070513          	mv	a0,a4
   10494:	02e12a23          	sw	a4,52(sp)
   10498:	7f4080ef          	jal	ra,18c8c <strlen>
   1049c:	02a12823          	sw	a0,48(sp)
   104a0:	10012023          	sw	zero,256(sp)
   104a4:	10012223          	sw	zero,260(sp)
   104a8:	10012423          	sw	zero,264(sp)
   104ac:	10012623          	sw	zero,268(sp)
   104b0:	00040663          	beqz	s0,104bc <_vfprintf_r+0x80>
   104b4:	03842783          	lw	a5,56(s0)
   104b8:	020786e3          	beqz	a5,10ce4 <_vfprintf_r+0x8a8>
   104bc:	00c12603          	lw	a2,12(sp)
   104c0:	00c61783          	lh	a5,12(a2)
   104c4:	01279713          	slli	a4,a5,0x12
   104c8:	02074663          	bltz	a4,104f4 <_vfprintf_r+0xb8>
   104cc:	06462703          	lw	a4,100(a2)
   104d0:	000026b7          	lui	a3,0x2
   104d4:	00d7e7b3          	or	a5,a5,a3
   104d8:	ffffe6b7          	lui	a3,0xffffe
   104dc:	01079793          	slli	a5,a5,0x10
   104e0:	fff68693          	addi	a3,a3,-1 # ffffdfff <__BSS_END__+0xfffd6517>
   104e4:	4107d793          	srai	a5,a5,0x10
   104e8:	00d77733          	and	a4,a4,a3
   104ec:	00f61623          	sh	a5,12(a2)
   104f0:	06e62223          	sw	a4,100(a2)
   104f4:	0087f713          	andi	a4,a5,8
   104f8:	2e070663          	beqz	a4,107e4 <_vfprintf_r+0x3a8>
   104fc:	00c12703          	lw	a4,12(sp)
   10500:	01072703          	lw	a4,16(a4)
   10504:	2e070063          	beqz	a4,107e4 <_vfprintf_r+0x3a8>
   10508:	01a7f793          	andi	a5,a5,26
   1050c:	00a00713          	li	a4,10
   10510:	2ee78e63          	beq	a5,a4,1080c <_vfprintf_r+0x3d0>
   10514:	00090c93          	mv	s9,s2
   10518:	000cc703          	lbu	a4,0(s9)
   1051c:	11c10d93          	addi	s11,sp,284
   10520:	0fb12a23          	sw	s11,244(sp)
   10524:	0e012e23          	sw	zero,252(sp)
   10528:	0e012c23          	sw	zero,248(sp)
   1052c:	02012023          	sw	zero,32(sp)
   10530:	02012c23          	sw	zero,56(sp)
   10534:	04012023          	sw	zero,64(sp)
   10538:	02012e23          	sw	zero,60(sp)
   1053c:	04012423          	sw	zero,72(sp)
   10540:	04012223          	sw	zero,68(sp)
   10544:	00012823          	sw	zero,16(sp)
   10548:	02c12a03          	lw	s4,44(sp)
   1054c:	01000b13          	li	s6,16
   10550:	000d8413          	mv	s0,s11
   10554:	22070863          	beqz	a4,10784 <_vfprintf_r+0x348>
   10558:	000c8493          	mv	s1,s9
   1055c:	02500693          	li	a3,37
   10560:	40d70c63          	beq	a4,a3,10978 <_vfprintf_r+0x53c>
   10564:	0014c703          	lbu	a4,1(s1)
   10568:	00148493          	addi	s1,s1,1
   1056c:	fe071ae3          	bnez	a4,10560 <_vfprintf_r+0x124>
   10570:	41948933          	sub	s2,s1,s9
   10574:	21948863          	beq	s1,s9,10784 <_vfprintf_r+0x348>
   10578:	0fc12683          	lw	a3,252(sp)
   1057c:	0f812703          	lw	a4,248(sp)
   10580:	01942023          	sw	s9,0(s0)
   10584:	012686b3          	add	a3,a3,s2
   10588:	00170713          	addi	a4,a4,1
   1058c:	01242223          	sw	s2,4(s0)
   10590:	0ed12e23          	sw	a3,252(sp)
   10594:	0ee12c23          	sw	a4,248(sp)
   10598:	00700693          	li	a3,7
   1059c:	00840413          	addi	s0,s0,8
   105a0:	3ee6c463          	blt	a3,a4,10988 <_vfprintf_r+0x54c>
   105a4:	01012783          	lw	a5,16(sp)
   105a8:	0004c703          	lbu	a4,0(s1)
   105ac:	012787b3          	add	a5,a5,s2
   105b0:	00f12823          	sw	a5,16(sp)
   105b4:	1c070863          	beqz	a4,10784 <_vfprintf_r+0x348>
   105b8:	0014c883          	lbu	a7,1(s1)
   105bc:	0c010ba3          	sb	zero,215(sp)
   105c0:	00148493          	addi	s1,s1,1
   105c4:	fff00993          	li	s3,-1
   105c8:	00000a93          	li	s5,0
   105cc:	00000c13          	li	s8,0
   105d0:	05a00913          	li	s2,90
   105d4:	00148493          	addi	s1,s1,1
   105d8:	fe088793          	addi	a5,a7,-32
   105dc:	04f96a63          	bltu	s2,a5,10630 <_vfprintf_r+0x1f4>
   105e0:	00015717          	auipc	a4,0x15
   105e4:	62870713          	addi	a4,a4,1576 # 25c08 <__clzsi2+0xd0>
   105e8:	00279793          	slli	a5,a5,0x2
   105ec:	00e787b3          	add	a5,a5,a4
   105f0:	0007a783          	lw	a5,0(a5)
   105f4:	00e787b3          	add	a5,a5,a4
   105f8:	00078067          	jr	a5
   105fc:	00000a93          	li	s5,0
   10600:	fd088793          	addi	a5,a7,-48
   10604:	00900693          	li	a3,9
   10608:	0004c883          	lbu	a7,0(s1)
   1060c:	002a9713          	slli	a4,s5,0x2
   10610:	01570ab3          	add	s5,a4,s5
   10614:	001a9a93          	slli	s5,s5,0x1
   10618:	01578ab3          	add	s5,a5,s5
   1061c:	fd088793          	addi	a5,a7,-48
   10620:	00148493          	addi	s1,s1,1
   10624:	fef6f2e3          	bgeu	a3,a5,10608 <_vfprintf_r+0x1cc>
   10628:	fe088793          	addi	a5,a7,-32
   1062c:	faf97ae3          	bgeu	s2,a5,105e0 <_vfprintf_r+0x1a4>
   10630:	14088a63          	beqz	a7,10784 <_vfprintf_r+0x348>
   10634:	15110e23          	sb	a7,348(sp)
   10638:	0c010ba3          	sb	zero,215(sp)
   1063c:	00100d13          	li	s10,1
   10640:	00100913          	li	s2,1
   10644:	15c10c93          	addi	s9,sp,348
   10648:	00012a23          	sw	zero,20(sp)
   1064c:	00000993          	li	s3,0
   10650:	02012423          	sw	zero,40(sp)
   10654:	02012223          	sw	zero,36(sp)
   10658:	00012e23          	sw	zero,28(sp)
   1065c:	002c7293          	andi	t0,s8,2
   10660:	00028463          	beqz	t0,10668 <_vfprintf_r+0x22c>
   10664:	002d0d13          	addi	s10,s10,2
   10668:	084c7f93          	andi	t6,s8,132
   1066c:	000f9663          	bnez	t6,10678 <_vfprintf_r+0x23c>
   10670:	41aa86b3          	sub	a3,s5,s10
   10674:	46d04ce3          	bgtz	a3,112ec <_vfprintf_r+0xeb0>
   10678:	0d714683          	lbu	a3,215(sp)
   1067c:	02068c63          	beqz	a3,106b4 <_vfprintf_r+0x278>
   10680:	0fc12603          	lw	a2,252(sp)
   10684:	0f812683          	lw	a3,248(sp)
   10688:	0d710593          	addi	a1,sp,215
   1068c:	00160613          	addi	a2,a2,1
   10690:	00b42023          	sw	a1,0(s0)
   10694:	00168693          	addi	a3,a3,1
   10698:	00100593          	li	a1,1
   1069c:	00b42223          	sw	a1,4(s0)
   106a0:	0ec12e23          	sw	a2,252(sp)
   106a4:	0ed12c23          	sw	a3,248(sp)
   106a8:	00700613          	li	a2,7
   106ac:	00840413          	addi	s0,s0,8
   106b0:	3cd64a63          	blt	a2,a3,10a84 <_vfprintf_r+0x648>
   106b4:	02028c63          	beqz	t0,106ec <_vfprintf_r+0x2b0>
   106b8:	0fc12603          	lw	a2,252(sp)
   106bc:	0f812683          	lw	a3,248(sp)
   106c0:	0d810793          	addi	a5,sp,216
   106c4:	00260613          	addi	a2,a2,2
   106c8:	00168693          	addi	a3,a3,1
   106cc:	00200593          	li	a1,2
   106d0:	00f42023          	sw	a5,0(s0)
   106d4:	00b42223          	sw	a1,4(s0)
   106d8:	0ec12e23          	sw	a2,252(sp)
   106dc:	0ed12c23          	sw	a3,248(sp)
   106e0:	00700613          	li	a2,7
   106e4:	00840413          	addi	s0,s0,8
   106e8:	50d64ce3          	blt	a2,a3,11400 <_vfprintf_r+0xfc4>
   106ec:	08000693          	li	a3,128
   106f0:	1edf88e3          	beq	t6,a3,110e0 <_vfprintf_r+0xca4>
   106f4:	412989b3          	sub	s3,s3,s2
   106f8:	2f3042e3          	bgtz	s3,111dc <_vfprintf_r+0xda0>
   106fc:	100c7693          	andi	a3,s8,256
   10700:	040690e3          	bnez	a3,10f40 <_vfprintf_r+0xb04>
   10704:	0fc12683          	lw	a3,252(sp)
   10708:	0f812783          	lw	a5,248(sp)
   1070c:	01942023          	sw	s9,0(s0)
   10710:	00d906b3          	add	a3,s2,a3
   10714:	00178793          	addi	a5,a5,1
   10718:	01242223          	sw	s2,4(s0)
   1071c:	0ed12e23          	sw	a3,252(sp)
   10720:	0ef12c23          	sw	a5,248(sp)
   10724:	00700613          	li	a2,7
   10728:	4af64263          	blt	a2,a5,10bcc <_vfprintf_r+0x790>
   1072c:	00840413          	addi	s0,s0,8
   10730:	004c7713          	andi	a4,s8,4
   10734:	00070663          	beqz	a4,10740 <_vfprintf_r+0x304>
   10738:	41aa8933          	sub	s2,s5,s10
   1073c:	4f2048e3          	bgtz	s2,1142c <_vfprintf_r+0xff0>
   10740:	000a8313          	mv	t1,s5
   10744:	01aad463          	bge	s5,s10,1074c <_vfprintf_r+0x310>
   10748:	000d0313          	mv	t1,s10
   1074c:	01012783          	lw	a5,16(sp)
   10750:	006787b3          	add	a5,a5,t1
   10754:	00f12823          	sw	a5,16(sp)
   10758:	360692e3          	bnez	a3,112bc <_vfprintf_r+0xe80>
   1075c:	01412783          	lw	a5,20(sp)
   10760:	0e012c23          	sw	zero,248(sp)
   10764:	00078863          	beqz	a5,10774 <_vfprintf_r+0x338>
   10768:	01412583          	lw	a1,20(sp)
   1076c:	000a0513          	mv	a0,s4
   10770:	29c030ef          	jal	ra,13a0c <_free_r>
   10774:	000d8413          	mv	s0,s11
   10778:	00048c93          	mv	s9,s1
   1077c:	000cc703          	lbu	a4,0(s9)
   10780:	dc071ce3          	bnez	a4,10558 <_vfprintf_r+0x11c>
   10784:	0fc12783          	lw	a5,252(sp)
   10788:	00078463          	beqz	a5,10790 <_vfprintf_r+0x354>
   1078c:	2ed0106f          	j	12278 <_vfprintf_r+0x1e3c>
   10790:	00c12783          	lw	a5,12(sp)
   10794:	00c7d783          	lhu	a5,12(a5)
   10798:	0407f793          	andi	a5,a5,64
   1079c:	00078463          	beqz	a5,107a4 <_vfprintf_r+0x368>
   107a0:	2bc0206f          	j	12a5c <_vfprintf_r+0x2620>
   107a4:	1fc12083          	lw	ra,508(sp)
   107a8:	1f812403          	lw	s0,504(sp)
   107ac:	01012503          	lw	a0,16(sp)
   107b0:	1f412483          	lw	s1,500(sp)
   107b4:	1f012903          	lw	s2,496(sp)
   107b8:	1ec12983          	lw	s3,492(sp)
   107bc:	1e812a03          	lw	s4,488(sp)
   107c0:	1e412a83          	lw	s5,484(sp)
   107c4:	1e012b03          	lw	s6,480(sp)
   107c8:	1dc12b83          	lw	s7,476(sp)
   107cc:	1d812c03          	lw	s8,472(sp)
   107d0:	1d412c83          	lw	s9,468(sp)
   107d4:	1d012d03          	lw	s10,464(sp)
   107d8:	1cc12d83          	lw	s11,460(sp)
   107dc:	20010113          	addi	sp,sp,512
   107e0:	00008067          	ret
   107e4:	00c12583          	lw	a1,12(sp)
   107e8:	02c12503          	lw	a0,44(sp)
   107ec:	764020ef          	jal	ra,12f50 <__swsetup_r>
   107f0:	00050463          	beqz	a0,107f8 <_vfprintf_r+0x3bc>
   107f4:	2680206f          	j	12a5c <_vfprintf_r+0x2620>
   107f8:	00c12783          	lw	a5,12(sp)
   107fc:	00a00713          	li	a4,10
   10800:	00c79783          	lh	a5,12(a5)
   10804:	01a7f793          	andi	a5,a5,26
   10808:	d0e796e3          	bne	a5,a4,10514 <_vfprintf_r+0xd8>
   1080c:	00c12783          	lw	a5,12(sp)
   10810:	00e79783          	lh	a5,14(a5)
   10814:	d007c0e3          	bltz	a5,10514 <_vfprintf_r+0xd8>
   10818:	01812683          	lw	a3,24(sp)
   1081c:	00c12583          	lw	a1,12(sp)
   10820:	02c12503          	lw	a0,44(sp)
   10824:	00090613          	mv	a2,s2
   10828:	65c020ef          	jal	ra,12e84 <__sbprintf>
   1082c:	00a12823          	sw	a0,16(sp)
   10830:	f75ff06f          	j	107a4 <_vfprintf_r+0x368>
   10834:	000a0513          	mv	a0,s4
   10838:	2dc060ef          	jal	ra,16b14 <_localeconv_r>
   1083c:	00452783          	lw	a5,4(a0)
   10840:	00078513          	mv	a0,a5
   10844:	04f12223          	sw	a5,68(sp)
   10848:	444080ef          	jal	ra,18c8c <strlen>
   1084c:	00050793          	mv	a5,a0
   10850:	000a0513          	mv	a0,s4
   10854:	00078b93          	mv	s7,a5
   10858:	04f12423          	sw	a5,72(sp)
   1085c:	2b8060ef          	jal	ra,16b14 <_localeconv_r>
   10860:	00852703          	lw	a4,8(a0)
   10864:	02e12e23          	sw	a4,60(sp)
   10868:	000b8463          	beqz	s7,10870 <_vfprintf_r+0x434>
   1086c:	7d10006f          	j	1183c <_vfprintf_r+0x1400>
   10870:	0004c883          	lbu	a7,0(s1)
   10874:	d61ff06f          	j	105d4 <_vfprintf_r+0x198>
   10878:	0004c883          	lbu	a7,0(s1)
   1087c:	020c6c13          	ori	s8,s8,32
   10880:	d55ff06f          	j	105d4 <_vfprintf_r+0x198>
   10884:	010c6c13          	ori	s8,s8,16
   10888:	020c7793          	andi	a5,s8,32
   1088c:	38078863          	beqz	a5,10c1c <_vfprintf_r+0x7e0>
   10890:	01812783          	lw	a5,24(sp)
   10894:	00778b93          	addi	s7,a5,7
   10898:	ff8bfb93          	andi	s7,s7,-8
   1089c:	004ba783          	lw	a5,4(s7)
   108a0:	000ba903          	lw	s2,0(s7)
   108a4:	008b8713          	addi	a4,s7,8
   108a8:	00e12c23          	sw	a4,24(sp)
   108ac:	00078d13          	mv	s10,a5
   108b0:	3a07c063          	bltz	a5,10c50 <_vfprintf_r+0x814>
   108b4:	fff00793          	li	a5,-1
   108b8:	000c0613          	mv	a2,s8
   108bc:	4cf98c63          	beq	s3,a5,10d94 <_vfprintf_r+0x958>
   108c0:	01a967b3          	or	a5,s2,s10
   108c4:	f7fc7613          	andi	a2,s8,-129
   108c8:	4c079663          	bnez	a5,10d94 <_vfprintf_r+0x958>
   108cc:	4c099a63          	bnez	s3,10da0 <_vfprintf_r+0x964>
   108d0:	00000913          	li	s2,0
   108d4:	00060c13          	mv	s8,a2
   108d8:	1c010c93          	addi	s9,sp,448
   108dc:	0d714683          	lbu	a3,215(sp)
   108e0:	00090d13          	mv	s10,s2
   108e4:	01395463          	bge	s2,s3,108ec <_vfprintf_r+0x4b0>
   108e8:	00098d13          	mv	s10,s3
   108ec:	00012a23          	sw	zero,20(sp)
   108f0:	02012423          	sw	zero,40(sp)
   108f4:	02012223          	sw	zero,36(sp)
   108f8:	00012e23          	sw	zero,28(sp)
   108fc:	d60680e3          	beqz	a3,1065c <_vfprintf_r+0x220>
   10900:	001d0d13          	addi	s10,s10,1
   10904:	d59ff06f          	j	1065c <_vfprintf_r+0x220>
   10908:	010c6c13          	ori	s8,s8,16
   1090c:	020c7793          	andi	a5,s8,32
   10910:	2c078e63          	beqz	a5,10bec <_vfprintf_r+0x7b0>
   10914:	01812783          	lw	a5,24(sp)
   10918:	00778b93          	addi	s7,a5,7
   1091c:	ff8bfb93          	andi	s7,s7,-8
   10920:	000ba903          	lw	s2,0(s7)
   10924:	004bad03          	lw	s10,4(s7)
   10928:	008b8793          	addi	a5,s7,8
   1092c:	00f12c23          	sw	a5,24(sp)
   10930:	bffc7613          	andi	a2,s8,-1025
   10934:	00000593          	li	a1,0
   10938:	00000793          	li	a5,0
   1093c:	0cf10ba3          	sb	a5,215(sp)
   10940:	fff00793          	li	a5,-1
   10944:	32f98a63          	beq	s3,a5,10c78 <_vfprintf_r+0x83c>
   10948:	01a967b3          	or	a5,s2,s10
   1094c:	f7f67c13          	andi	s8,a2,-129
   10950:	18079ae3          	bnez	a5,112e4 <_vfprintf_r+0xea8>
   10954:	72099863          	bnez	s3,11084 <_vfprintf_r+0xc48>
   10958:	620594e3          	bnez	a1,11780 <_vfprintf_r+0x1344>
   1095c:	00167913          	andi	s2,a2,1
   10960:	1c010c93          	addi	s9,sp,448
   10964:	f6090ce3          	beqz	s2,108dc <_vfprintf_r+0x4a0>
   10968:	03000793          	li	a5,48
   1096c:	1af10fa3          	sb	a5,447(sp)
   10970:	1bf10c93          	addi	s9,sp,447
   10974:	f69ff06f          	j	108dc <_vfprintf_r+0x4a0>
   10978:	41948933          	sub	s2,s1,s9
   1097c:	bf949ee3          	bne	s1,s9,10578 <_vfprintf_r+0x13c>
   10980:	0004c703          	lbu	a4,0(s1)
   10984:	c31ff06f          	j	105b4 <_vfprintf_r+0x178>
   10988:	00c12583          	lw	a1,12(sp)
   1098c:	0f410613          	addi	a2,sp,244
   10990:	000a0513          	mv	a0,s4
   10994:	6fd0a0ef          	jal	ra,1b890 <__sprint_r>
   10998:	de051ce3          	bnez	a0,10790 <_vfprintf_r+0x354>
   1099c:	000d8413          	mv	s0,s11
   109a0:	c05ff06f          	j	105a4 <_vfprintf_r+0x168>
   109a4:	008c7693          	andi	a3,s8,8
   109a8:	640692e3          	bnez	a3,117ec <_vfprintf_r+0x13b0>
   109ac:	01812783          	lw	a5,24(sp)
   109b0:	0c010513          	addi	a0,sp,192
   109b4:	01112a23          	sw	a7,20(sp)
   109b8:	00778b93          	addi	s7,a5,7
   109bc:	ff8bfb93          	andi	s7,s7,-8
   109c0:	000ba583          	lw	a1,0(s7)
   109c4:	004ba603          	lw	a2,4(s7)
   109c8:	008b8793          	addi	a5,s7,8
   109cc:	00f12c23          	sw	a5,24(sp)
   109d0:	28d140ef          	jal	ra,2545c <__extenddftf2>
   109d4:	0c012803          	lw	a6,192(sp)
   109d8:	0c412583          	lw	a1,196(sp)
   109dc:	0c812603          	lw	a2,200(sp)
   109e0:	0cc12683          	lw	a3,204(sp)
   109e4:	01412883          	lw	a7,20(sp)
   109e8:	10010513          	addi	a0,sp,256
   109ec:	01112a23          	sw	a7,20(sp)
   109f0:	10d12623          	sw	a3,268(sp)
   109f4:	11012023          	sw	a6,256(sp)
   109f8:	10b12223          	sw	a1,260(sp)
   109fc:	10c12423          	sw	a2,264(sp)
   10a00:	094060ef          	jal	ra,16a94 <_ldcheck>
   10a04:	0ca12e23          	sw	a0,220(sp)
   10a08:	00200693          	li	a3,2
   10a0c:	01412883          	lw	a7,20(sp)
   10a10:	00d51463          	bne	a0,a3,10a18 <_vfprintf_r+0x5dc>
   10a14:	38c0106f          	j	11da0 <_vfprintf_r+0x1964>
   10a18:	00100693          	li	a3,1
   10a1c:	00d51463          	bne	a0,a3,10a24 <_vfprintf_r+0x5e8>
   10a20:	4dc0106f          	j	11efc <_vfprintf_r+0x1ac0>
   10a24:	06100693          	li	a3,97
   10a28:	78d88ee3          	beq	a7,a3,119c4 <_vfprintf_r+0x1588>
   10a2c:	04100693          	li	a3,65
   10a30:	05800793          	li	a5,88
   10a34:	78d88ae3          	beq	a7,a3,119c8 <_vfprintf_r+0x158c>
   10a38:	fff00693          	li	a3,-1
   10a3c:	00d99463          	bne	s3,a3,10a44 <_vfprintf_r+0x608>
   10a40:	1b40206f          	j	12bf4 <_vfprintf_r+0x27b8>
   10a44:	fdf8f693          	andi	a3,a7,-33
   10a48:	04700613          	li	a2,71
   10a4c:	00c69463          	bne	a3,a2,10a54 <_vfprintf_r+0x618>
   10a50:	1940206f          	j	12be4 <_vfprintf_r+0x27a8>
   10a54:	10c12e03          	lw	t3,268(sp)
   10a58:	100c6793          	ori	a5,s8,256
   10a5c:	04f12e23          	sw	a5,92(sp)
   10a60:	05812623          	sw	s8,76(sp)
   10a64:	10012f83          	lw	t6,256(sp)
   10a68:	10412f03          	lw	t5,260(sp)
   10a6c:	10812e83          	lw	t4,264(sp)
   10a70:	000e5463          	bgez	t3,10a78 <_vfprintf_r+0x63c>
   10a74:	0210106f          	j	12294 <_vfprintf_r+0x1e58>
   10a78:	06012823          	sw	zero,112(sp)
   10a7c:	00012a23          	sw	zero,20(sp)
   10a80:	7990006f          	j	11a18 <_vfprintf_r+0x15dc>
   10a84:	00c12583          	lw	a1,12(sp)
   10a88:	0f410613          	addi	a2,sp,244
   10a8c:	000a0513          	mv	a0,s4
   10a90:	05112a23          	sw	a7,84(sp)
   10a94:	05f12823          	sw	t6,80(sp)
   10a98:	04512623          	sw	t0,76(sp)
   10a9c:	5f50a0ef          	jal	ra,1b890 <__sprint_r>
   10aa0:	020518e3          	bnez	a0,112d0 <_vfprintf_r+0xe94>
   10aa4:	05412883          	lw	a7,84(sp)
   10aa8:	05012f83          	lw	t6,80(sp)
   10aac:	04c12283          	lw	t0,76(sp)
   10ab0:	000d8413          	mv	s0,s11
   10ab4:	c01ff06f          	j	106b4 <_vfprintf_r+0x278>
   10ab8:	02012783          	lw	a5,32(sp)
   10abc:	00100613          	li	a2,1
   10ac0:	00840993          	addi	s3,s0,8
   10ac4:	3af658e3          	bge	a2,a5,11674 <_vfprintf_r+0x1238>
   10ac8:	0fc12683          	lw	a3,252(sp)
   10acc:	0f812903          	lw	s2,248(sp)
   10ad0:	00100613          	li	a2,1
   10ad4:	00168693          	addi	a3,a3,1
   10ad8:	00190913          	addi	s2,s2,1
   10adc:	00c42223          	sw	a2,4(s0)
   10ae0:	01942023          	sw	s9,0(s0)
   10ae4:	0ed12e23          	sw	a3,252(sp)
   10ae8:	0f212c23          	sw	s2,248(sp)
   10aec:	00700613          	li	a2,7
   10af0:	01265463          	bge	a2,s2,10af8 <_vfprintf_r+0x6bc>
   10af4:	0c00106f          	j	11bb4 <_vfprintf_r+0x1778>
   10af8:	03012783          	lw	a5,48(sp)
   10afc:	00190913          	addi	s2,s2,1
   10b00:	0f212c23          	sw	s2,248(sp)
   10b04:	00d78733          	add	a4,a5,a3
   10b08:	03412683          	lw	a3,52(sp)
   10b0c:	00f9a223          	sw	a5,4(s3)
   10b10:	0ee12e23          	sw	a4,252(sp)
   10b14:	00d9a023          	sw	a3,0(s3)
   10b18:	00700613          	li	a2,7
   10b1c:	00898993          	addi	s3,s3,8
   10b20:	01265463          	bge	a2,s2,10b28 <_vfprintf_r+0x6ec>
   10b24:	0b40106f          	j	11bd8 <_vfprintf_r+0x179c>
   10b28:	10012603          	lw	a2,256(sp)
   10b2c:	0b010593          	addi	a1,sp,176
   10b30:	0c010513          	addi	a0,sp,192
   10b34:	0cc12023          	sw	a2,192(sp)
   10b38:	10412603          	lw	a2,260(sp)
   10b3c:	00e12e23          	sw	a4,28(sp)
   10b40:	0a012823          	sw	zero,176(sp)
   10b44:	0cc12223          	sw	a2,196(sp)
   10b48:	10812603          	lw	a2,264(sp)
   10b4c:	0a012a23          	sw	zero,180(sp)
   10b50:	0a012c23          	sw	zero,184(sp)
   10b54:	0cc12423          	sw	a2,200(sp)
   10b58:	10c12603          	lw	a2,268(sp)
   10b5c:	0a012e23          	sw	zero,188(sp)
   10b60:	0cc12623          	sw	a2,204(sp)
   10b64:	644110ef          	jal	ra,221a8 <__eqtf2>
   10b68:	02012783          	lw	a5,32(sp)
   10b6c:	01c12703          	lw	a4,28(sp)
   10b70:	fff78413          	addi	s0,a5,-1
   10b74:	34050ae3          	beqz	a0,116c8 <_vfprintf_r+0x128c>
   10b78:	001c8793          	addi	a5,s9,1
   10b7c:	00190913          	addi	s2,s2,1
   10b80:	00870733          	add	a4,a4,s0
   10b84:	00f9a023          	sw	a5,0(s3)
   10b88:	0089a223          	sw	s0,4(s3)
   10b8c:	0ee12e23          	sw	a4,252(sp)
   10b90:	0f212c23          	sw	s2,248(sp)
   10b94:	00700793          	li	a5,7
   10b98:	00898993          	addi	s3,s3,8
   10b9c:	3127c4e3          	blt	a5,s2,116a4 <_vfprintf_r+0x1268>
   10ba0:	04012583          	lw	a1,64(sp)
   10ba4:	0e410613          	addi	a2,sp,228
   10ba8:	00190793          	addi	a5,s2,1
   10bac:	00e586b3          	add	a3,a1,a4
   10bb0:	00c9a023          	sw	a2,0(s3)
   10bb4:	00b9a223          	sw	a1,4(s3)
   10bb8:	0ed12e23          	sw	a3,252(sp)
   10bbc:	0ef12c23          	sw	a5,248(sp)
   10bc0:	00700613          	li	a2,7
   10bc4:	00898413          	addi	s0,s3,8
   10bc8:	b6f654e3          	bge	a2,a5,10730 <_vfprintf_r+0x2f4>
   10bcc:	00c12583          	lw	a1,12(sp)
   10bd0:	0f410613          	addi	a2,sp,244
   10bd4:	000a0513          	mv	a0,s4
   10bd8:	4b90a0ef          	jal	ra,1b890 <__sprint_r>
   10bdc:	6e051a63          	bnez	a0,112d0 <_vfprintf_r+0xe94>
   10be0:	0fc12683          	lw	a3,252(sp)
   10be4:	000d8413          	mv	s0,s11
   10be8:	b49ff06f          	j	10730 <_vfprintf_r+0x2f4>
   10bec:	01812703          	lw	a4,24(sp)
   10bf0:	010c7793          	andi	a5,s8,16
   10bf4:	00072683          	lw	a3,0(a4)
   10bf8:	00470713          	addi	a4,a4,4
   10bfc:	00e12c23          	sw	a4,24(sp)
   10c00:	3c0794e3          	bnez	a5,117c8 <_vfprintf_r+0x138c>
   10c04:	040c7793          	andi	a5,s8,64
   10c08:	3a078ce3          	beqz	a5,117c0 <_vfprintf_r+0x1384>
   10c0c:	01069913          	slli	s2,a3,0x10
   10c10:	01095913          	srli	s2,s2,0x10
   10c14:	00000d13          	li	s10,0
   10c18:	d19ff06f          	j	10930 <_vfprintf_r+0x4f4>
   10c1c:	01812703          	lw	a4,24(sp)
   10c20:	010c7793          	andi	a5,s8,16
   10c24:	00072683          	lw	a3,0(a4)
   10c28:	00470713          	addi	a4,a4,4
   10c2c:	00e12c23          	sw	a4,24(sp)
   10c30:	3a0796e3          	bnez	a5,117dc <_vfprintf_r+0x13a0>
   10c34:	040c7793          	andi	a5,s8,64
   10c38:	38078ee3          	beqz	a5,117d4 <_vfprintf_r+0x1398>
   10c3c:	01069913          	slli	s2,a3,0x10
   10c40:	41095913          	srai	s2,s2,0x10
   10c44:	41f95d13          	srai	s10,s2,0x1f
   10c48:	000d0793          	mv	a5,s10
   10c4c:	c607d4e3          	bgez	a5,108b4 <_vfprintf_r+0x478>
   10c50:	012037b3          	snez	a5,s2
   10c54:	41a00833          	neg	a6,s10
   10c58:	40f80d33          	sub	s10,a6,a5
   10c5c:	02d00793          	li	a5,45
   10c60:	0cf10ba3          	sb	a5,215(sp)
   10c64:	fff00793          	li	a5,-1
   10c68:	41200933          	neg	s2,s2
   10c6c:	000c0613          	mv	a2,s8
   10c70:	00100593          	li	a1,1
   10c74:	ccf99ae3          	bne	s3,a5,10948 <_vfprintf_r+0x50c>
   10c78:	00100793          	li	a5,1
   10c7c:	10f58c63          	beq	a1,a5,10d94 <_vfprintf_r+0x958>
   10c80:	00200793          	li	a5,2
   10c84:	40f58c63          	beq	a1,a5,1109c <_vfprintf_r+0xc60>
   10c88:	1c010c93          	addi	s9,sp,448
   10c8c:	01dd1793          	slli	a5,s10,0x1d
   10c90:	00797713          	andi	a4,s2,7
   10c94:	00395913          	srli	s2,s2,0x3
   10c98:	03070713          	addi	a4,a4,48
   10c9c:	0127e933          	or	s2,a5,s2
   10ca0:	003d5d13          	srli	s10,s10,0x3
   10ca4:	feec8fa3          	sb	a4,-1(s9)
   10ca8:	01a967b3          	or	a5,s2,s10
   10cac:	000c8513          	mv	a0,s9
   10cb0:	fffc8c93          	addi	s9,s9,-1
   10cb4:	fc079ce3          	bnez	a5,10c8c <_vfprintf_r+0x850>
   10cb8:	00167693          	andi	a3,a2,1
   10cbc:	40068a63          	beqz	a3,110d0 <_vfprintf_r+0xc94>
   10cc0:	03000693          	li	a3,48
   10cc4:	40d70663          	beq	a4,a3,110d0 <_vfprintf_r+0xc94>
   10cc8:	ffe50513          	addi	a0,a0,-2
   10ccc:	1c010793          	addi	a5,sp,448
   10cd0:	fedc8fa3          	sb	a3,-1(s9)
   10cd4:	40a78933          	sub	s2,a5,a0
   10cd8:	00060c13          	mv	s8,a2
   10cdc:	00050c93          	mv	s9,a0
   10ce0:	bfdff06f          	j	108dc <_vfprintf_r+0x4a0>
   10ce4:	02c12503          	lw	a0,44(sp)
   10ce8:	359020ef          	jal	ra,13840 <__sinit>
   10cec:	fd0ff06f          	j	104bc <_vfprintf_r+0x80>
   10cf0:	01812703          	lw	a4,24(sp)
   10cf4:	0c010ba3          	sb	zero,215(sp)
   10cf8:	00100d13          	li	s10,1
   10cfc:	00072783          	lw	a5,0(a4)
   10d00:	00470713          	addi	a4,a4,4
   10d04:	00e12c23          	sw	a4,24(sp)
   10d08:	14f10e23          	sb	a5,348(sp)
   10d0c:	00100913          	li	s2,1
   10d10:	15c10c93          	addi	s9,sp,348
   10d14:	935ff06f          	j	10648 <_vfprintf_r+0x20c>
   10d18:	01812783          	lw	a5,24(sp)
   10d1c:	0c010ba3          	sb	zero,215(sp)
   10d20:	0007ac83          	lw	s9,0(a5)
   10d24:	00478b93          	addi	s7,a5,4
   10d28:	3e0c8ee3          	beqz	s9,11924 <_vfprintf_r+0x14e8>
   10d2c:	fff00693          	li	a3,-1
   10d30:	00d99463          	bne	s3,a3,10d38 <_vfprintf_r+0x8fc>
   10d34:	1640106f          	j	11e98 <_vfprintf_r+0x1a5c>
   10d38:	00098613          	mv	a2,s3
   10d3c:	00000593          	li	a1,0
   10d40:	000c8513          	mv	a0,s9
   10d44:	01112c23          	sw	a7,24(sp)
   10d48:	7c4060ef          	jal	ra,1750c <memchr>
   10d4c:	00a12a23          	sw	a0,20(sp)
   10d50:	01812883          	lw	a7,24(sp)
   10d54:	00051463          	bnez	a0,10d5c <_vfprintf_r+0x920>
   10d58:	4350106f          	j	1298c <_vfprintf_r+0x2550>
   10d5c:	01412783          	lw	a5,20(sp)
   10d60:	0d714683          	lbu	a3,215(sp)
   10d64:	01712c23          	sw	s7,24(sp)
   10d68:	41978933          	sub	s2,a5,s9
   10d6c:	fff94813          	not	a6,s2
   10d70:	41f85813          	srai	a6,a6,0x1f
   10d74:	00012a23          	sw	zero,20(sp)
   10d78:	02012423          	sw	zero,40(sp)
   10d7c:	02012223          	sw	zero,36(sp)
   10d80:	00012e23          	sw	zero,28(sp)
   10d84:	01097d33          	and	s10,s2,a6
   10d88:	00000993          	li	s3,0
   10d8c:	b6069ae3          	bnez	a3,10900 <_vfprintf_r+0x4c4>
   10d90:	8cdff06f          	j	1065c <_vfprintf_r+0x220>
   10d94:	660d1ee3          	bnez	s10,11c10 <_vfprintf_r+0x17d4>
   10d98:	00900793          	li	a5,9
   10d9c:	6727eae3          	bltu	a5,s2,11c10 <_vfprintf_r+0x17d4>
   10da0:	03090693          	addi	a3,s2,48
   10da4:	1ad10fa3          	sb	a3,447(sp)
   10da8:	00060c13          	mv	s8,a2
   10dac:	00100913          	li	s2,1
   10db0:	1bf10c93          	addi	s9,sp,447
   10db4:	b29ff06f          	j	108dc <_vfprintf_r+0x4a0>
   10db8:	01812783          	lw	a5,24(sp)
   10dbc:	0007aa83          	lw	s5,0(a5)
   10dc0:	00478793          	addi	a5,a5,4
   10dc4:	1c0adce3          	bgez	s5,1179c <_vfprintf_r+0x1360>
   10dc8:	41500ab3          	neg	s5,s5
   10dcc:	00f12c23          	sw	a5,24(sp)
   10dd0:	0004c883          	lbu	a7,0(s1)
   10dd4:	004c6c13          	ori	s8,s8,4
   10dd8:	ffcff06f          	j	105d4 <_vfprintf_r+0x198>
   10ddc:	02b00793          	li	a5,43
   10de0:	0004c883          	lbu	a7,0(s1)
   10de4:	0cf10ba3          	sb	a5,215(sp)
   10de8:	fecff06f          	j	105d4 <_vfprintf_r+0x198>
   10dec:	0004c883          	lbu	a7,0(s1)
   10df0:	080c6c13          	ori	s8,s8,128
   10df4:	fe0ff06f          	j	105d4 <_vfprintf_r+0x198>
   10df8:	0004c883          	lbu	a7,0(s1)
   10dfc:	02a00793          	li	a5,42
   10e00:	00148713          	addi	a4,s1,1
   10e04:	00f89463          	bne	a7,a5,10e0c <_vfprintf_r+0x9d0>
   10e08:	0180206f          	j	12e20 <_vfprintf_r+0x29e4>
   10e0c:	fd088793          	addi	a5,a7,-48
   10e10:	00900613          	li	a2,9
   10e14:	00070493          	mv	s1,a4
   10e18:	00000993          	li	s3,0
   10e1c:	00900693          	li	a3,9
   10e20:	faf66c63          	bltu	a2,a5,105d8 <_vfprintf_r+0x19c>
   10e24:	0004c883          	lbu	a7,0(s1)
   10e28:	00299713          	slli	a4,s3,0x2
   10e2c:	013709b3          	add	s3,a4,s3
   10e30:	00199993          	slli	s3,s3,0x1
   10e34:	00f989b3          	add	s3,s3,a5
   10e38:	fd088793          	addi	a5,a7,-48
   10e3c:	00148493          	addi	s1,s1,1
   10e40:	fef6f2e3          	bgeu	a3,a5,10e24 <_vfprintf_r+0x9e8>
   10e44:	f94ff06f          	j	105d8 <_vfprintf_r+0x19c>
   10e48:	0004c883          	lbu	a7,0(s1)
   10e4c:	001c6c13          	ori	s8,s8,1
   10e50:	f84ff06f          	j	105d4 <_vfprintf_r+0x198>
   10e54:	0d714783          	lbu	a5,215(sp)
   10e58:	0004c883          	lbu	a7,0(s1)
   10e5c:	f6079c63          	bnez	a5,105d4 <_vfprintf_r+0x198>
   10e60:	02000793          	li	a5,32
   10e64:	0cf10ba3          	sb	a5,215(sp)
   10e68:	f6cff06f          	j	105d4 <_vfprintf_r+0x198>
   10e6c:	0004c883          	lbu	a7,0(s1)
   10e70:	008c6c13          	ori	s8,s8,8
   10e74:	f60ff06f          	j	105d4 <_vfprintf_r+0x198>
   10e78:	010c6613          	ori	a2,s8,16
   10e7c:	02067793          	andi	a5,a2,32
   10e80:	0c0786e3          	beqz	a5,1174c <_vfprintf_r+0x1310>
   10e84:	01812783          	lw	a5,24(sp)
   10e88:	00100593          	li	a1,1
   10e8c:	00778b93          	addi	s7,a5,7
   10e90:	ff8bfb93          	andi	s7,s7,-8
   10e94:	008b8793          	addi	a5,s7,8
   10e98:	000ba903          	lw	s2,0(s7)
   10e9c:	004bad03          	lw	s10,4(s7)
   10ea0:	00f12c23          	sw	a5,24(sp)
   10ea4:	a95ff06f          	j	10938 <_vfprintf_r+0x4fc>
   10ea8:	01812703          	lw	a4,24(sp)
   10eac:	ffff87b7          	lui	a5,0xffff8
   10eb0:	8307c793          	xori	a5,a5,-2000
   10eb4:	0cf11c23          	sh	a5,216(sp)
   10eb8:	00470793          	addi	a5,a4,4
   10ebc:	00f12c23          	sw	a5,24(sp)
   10ec0:	00015797          	auipc	a5,0x15
   10ec4:	d1478793          	addi	a5,a5,-748 # 25bd4 <__clzsi2+0x9c>
   10ec8:	00072903          	lw	s2,0(a4)
   10ecc:	00000d13          	li	s10,0
   10ed0:	002c6613          	ori	a2,s8,2
   10ed4:	02f12c23          	sw	a5,56(sp)
   10ed8:	00200593          	li	a1,2
   10edc:	07800893          	li	a7,120
   10ee0:	a59ff06f          	j	10938 <_vfprintf_r+0x4fc>
   10ee4:	0004c883          	lbu	a7,0(s1)
   10ee8:	06c00793          	li	a5,108
   10eec:	20f88ce3          	beq	a7,a5,11904 <_vfprintf_r+0x14c8>
   10ef0:	010c6c13          	ori	s8,s8,16
   10ef4:	ee0ff06f          	j	105d4 <_vfprintf_r+0x198>
   10ef8:	0004c883          	lbu	a7,0(s1)
   10efc:	06800793          	li	a5,104
   10f00:	20f88ae3          	beq	a7,a5,11914 <_vfprintf_r+0x14d8>
   10f04:	040c6c13          	ori	s8,s8,64
   10f08:	eccff06f          	j	105d4 <_vfprintf_r+0x198>
   10f0c:	020c7793          	andi	a5,s8,32
   10f10:	100780e3          	beqz	a5,11810 <_vfprintf_r+0x13d4>
   10f14:	01812783          	lw	a5,24(sp)
   10f18:	01012683          	lw	a3,16(sp)
   10f1c:	0007a783          	lw	a5,0(a5)
   10f20:	41f6d713          	srai	a4,a3,0x1f
   10f24:	00d7a023          	sw	a3,0(a5)
   10f28:	00e7a223          	sw	a4,4(a5)
   10f2c:	01812783          	lw	a5,24(sp)
   10f30:	00048c93          	mv	s9,s1
   10f34:	00478793          	addi	a5,a5,4
   10f38:	00f12c23          	sw	a5,24(sp)
   10f3c:	841ff06f          	j	1077c <_vfprintf_r+0x340>
   10f40:	06500693          	li	a3,101
   10f44:	b716dae3          	bge	a3,a7,10ab8 <_vfprintf_r+0x67c>
   10f48:	10012683          	lw	a3,256(sp)
   10f4c:	0b010593          	addi	a1,sp,176
   10f50:	0c010513          	addi	a0,sp,192
   10f54:	0cd12023          	sw	a3,192(sp)
   10f58:	10412683          	lw	a3,260(sp)
   10f5c:	0a012823          	sw	zero,176(sp)
   10f60:	0a012a23          	sw	zero,180(sp)
   10f64:	0cd12223          	sw	a3,196(sp)
   10f68:	10812683          	lw	a3,264(sp)
   10f6c:	0a012c23          	sw	zero,184(sp)
   10f70:	0a012e23          	sw	zero,188(sp)
   10f74:	0cd12423          	sw	a3,200(sp)
   10f78:	10c12683          	lw	a3,268(sp)
   10f7c:	0cd12623          	sw	a3,204(sp)
   10f80:	228110ef          	jal	ra,221a8 <__eqtf2>
   10f84:	54051c63          	bnez	a0,114dc <_vfprintf_r+0x10a0>
   10f88:	0fc12683          	lw	a3,252(sp)
   10f8c:	0f812783          	lw	a5,248(sp)
   10f90:	00015617          	auipc	a2,0x15
   10f94:	c7460613          	addi	a2,a2,-908 # 25c04 <__clzsi2+0xcc>
   10f98:	00c42023          	sw	a2,0(s0)
   10f9c:	00168693          	addi	a3,a3,1
   10fa0:	00100613          	li	a2,1
   10fa4:	00178793          	addi	a5,a5,1
   10fa8:	00c42223          	sw	a2,4(s0)
   10fac:	0ed12e23          	sw	a3,252(sp)
   10fb0:	0ef12c23          	sw	a5,248(sp)
   10fb4:	00700613          	li	a2,7
   10fb8:	00840413          	addi	s0,s0,8
   10fbc:	5af642e3          	blt	a2,a5,11d60 <_vfprintf_r+0x1924>
   10fc0:	0dc12783          	lw	a5,220(sp)
   10fc4:	02012703          	lw	a4,32(sp)
   10fc8:	7ce7d263          	bge	a5,a4,1178c <_vfprintf_r+0x1350>
   10fcc:	03412783          	lw	a5,52(sp)
   10fd0:	03012703          	lw	a4,48(sp)
   10fd4:	00700613          	li	a2,7
   10fd8:	00f42023          	sw	a5,0(s0)
   10fdc:	0f812783          	lw	a5,248(sp)
   10fe0:	00d706b3          	add	a3,a4,a3
   10fe4:	00e42223          	sw	a4,4(s0)
   10fe8:	00178793          	addi	a5,a5,1
   10fec:	0ed12e23          	sw	a3,252(sp)
   10ff0:	0ef12c23          	sw	a5,248(sp)
   10ff4:	00840413          	addi	s0,s0,8
   10ff8:	0ef646e3          	blt	a2,a5,118e4 <_vfprintf_r+0x14a8>
   10ffc:	02012783          	lw	a5,32(sp)
   11000:	fff78913          	addi	s2,a5,-1
   11004:	f3205663          	blez	s2,10730 <_vfprintf_r+0x2f4>
   11008:	01000613          	li	a2,16
   1100c:	0f812783          	lw	a5,248(sp)
   11010:	00015b97          	auipc	s7,0x15
   11014:	e0cb8b93          	addi	s7,s7,-500 # 25e1c <zeroes.0>
   11018:	57265ce3          	bge	a2,s2,11d90 <_vfprintf_r+0x1954>
   1101c:	000b8713          	mv	a4,s7
   11020:	01000993          	li	s3,16
   11024:	00090b93          	mv	s7,s2
   11028:	00700c93          	li	s9,7
   1102c:	00048913          	mv	s2,s1
   11030:	00070493          	mv	s1,a4
   11034:	00c0006f          	j	11040 <_vfprintf_r+0xc04>
   11038:	ff0b8b93          	addi	s7,s7,-16
   1103c:	5579d2e3          	bge	s3,s7,11d80 <_vfprintf_r+0x1944>
   11040:	01068693          	addi	a3,a3,16
   11044:	00178793          	addi	a5,a5,1
   11048:	00942023          	sw	s1,0(s0)
   1104c:	01342223          	sw	s3,4(s0)
   11050:	0ed12e23          	sw	a3,252(sp)
   11054:	0ef12c23          	sw	a5,248(sp)
   11058:	00840413          	addi	s0,s0,8
   1105c:	fcfcdee3          	bge	s9,a5,11038 <_vfprintf_r+0xbfc>
   11060:	00c12583          	lw	a1,12(sp)
   11064:	0f410613          	addi	a2,sp,244
   11068:	000a0513          	mv	a0,s4
   1106c:	0250a0ef          	jal	ra,1b890 <__sprint_r>
   11070:	26051063          	bnez	a0,112d0 <_vfprintf_r+0xe94>
   11074:	0fc12683          	lw	a3,252(sp)
   11078:	0f812783          	lw	a5,248(sp)
   1107c:	000d8413          	mv	s0,s11
   11080:	fb9ff06f          	j	11038 <_vfprintf_r+0xbfc>
   11084:	00100793          	li	a5,1
   11088:	00f59463          	bne	a1,a5,11090 <_vfprintf_r+0xc54>
   1108c:	2390106f          	j	12ac4 <_vfprintf_r+0x2688>
   11090:	00200793          	li	a5,2
   11094:	000c0613          	mv	a2,s8
   11098:	bef598e3          	bne	a1,a5,10c88 <_vfprintf_r+0x84c>
   1109c:	03812683          	lw	a3,56(sp)
   110a0:	1c010c93          	addi	s9,sp,448
   110a4:	00f97793          	andi	a5,s2,15
   110a8:	00f687b3          	add	a5,a3,a5
   110ac:	0007c703          	lbu	a4,0(a5)
   110b0:	00495913          	srli	s2,s2,0x4
   110b4:	01cd1793          	slli	a5,s10,0x1c
   110b8:	0127e933          	or	s2,a5,s2
   110bc:	004d5d13          	srli	s10,s10,0x4
   110c0:	feec8fa3          	sb	a4,-1(s9)
   110c4:	01a967b3          	or	a5,s2,s10
   110c8:	fffc8c93          	addi	s9,s9,-1
   110cc:	fc079ce3          	bnez	a5,110a4 <_vfprintf_r+0xc68>
   110d0:	1c010793          	addi	a5,sp,448
   110d4:	41978933          	sub	s2,a5,s9
   110d8:	00060c13          	mv	s8,a2
   110dc:	801ff06f          	j	108dc <_vfprintf_r+0x4a0>
   110e0:	41aa86b3          	sub	a3,s5,s10
   110e4:	e0d05863          	blez	a3,106f4 <_vfprintf_r+0x2b8>
   110e8:	01000513          	li	a0,16
   110ec:	0fc12583          	lw	a1,252(sp)
   110f0:	0f812603          	lw	a2,248(sp)
   110f4:	00015b97          	auipc	s7,0x15
   110f8:	d28b8b93          	addi	s7,s7,-728 # 25e1c <zeroes.0>
   110fc:	08d55c63          	bge	a0,a3,11194 <_vfprintf_r+0xd58>
   11100:	04912623          	sw	s1,76(sp)
   11104:	00040793          	mv	a5,s0
   11108:	000b8493          	mv	s1,s7
   1110c:	01000f13          	li	t5,16
   11110:	00090b93          	mv	s7,s2
   11114:	00700f93          	li	t6,7
   11118:	00068413          	mv	s0,a3
   1111c:	00088913          	mv	s2,a7
   11120:	00c0006f          	j	1112c <_vfprintf_r+0xcf0>
   11124:	ff040413          	addi	s0,s0,-16
   11128:	048f5a63          	bge	t5,s0,1117c <_vfprintf_r+0xd40>
   1112c:	01058593          	addi	a1,a1,16
   11130:	00160613          	addi	a2,a2,1
   11134:	0097a023          	sw	s1,0(a5)
   11138:	01e7a223          	sw	t5,4(a5)
   1113c:	0eb12e23          	sw	a1,252(sp)
   11140:	0ec12c23          	sw	a2,248(sp)
   11144:	00878793          	addi	a5,a5,8
   11148:	fccfdee3          	bge	t6,a2,11124 <_vfprintf_r+0xce8>
   1114c:	00c12583          	lw	a1,12(sp)
   11150:	0f410613          	addi	a2,sp,244
   11154:	000a0513          	mv	a0,s4
   11158:	7380a0ef          	jal	ra,1b890 <__sprint_r>
   1115c:	16051a63          	bnez	a0,112d0 <_vfprintf_r+0xe94>
   11160:	01000f13          	li	t5,16
   11164:	ff040413          	addi	s0,s0,-16
   11168:	0fc12583          	lw	a1,252(sp)
   1116c:	0f812603          	lw	a2,248(sp)
   11170:	000d8793          	mv	a5,s11
   11174:	00700f93          	li	t6,7
   11178:	fa8f4ae3          	blt	t5,s0,1112c <_vfprintf_r+0xcf0>
   1117c:	00090893          	mv	a7,s2
   11180:	000b8913          	mv	s2,s7
   11184:	00048b93          	mv	s7,s1
   11188:	04c12483          	lw	s1,76(sp)
   1118c:	00040693          	mv	a3,s0
   11190:	00078413          	mv	s0,a5
   11194:	00b685b3          	add	a1,a3,a1
   11198:	00160613          	addi	a2,a2,1
   1119c:	00d42223          	sw	a3,4(s0)
   111a0:	01742023          	sw	s7,0(s0)
   111a4:	0eb12e23          	sw	a1,252(sp)
   111a8:	0ec12c23          	sw	a2,248(sp)
   111ac:	00700693          	li	a3,7
   111b0:	00840413          	addi	s0,s0,8
   111b4:	d4c6d063          	bge	a3,a2,106f4 <_vfprintf_r+0x2b8>
   111b8:	00c12583          	lw	a1,12(sp)
   111bc:	0f410613          	addi	a2,sp,244
   111c0:	000a0513          	mv	a0,s4
   111c4:	05112623          	sw	a7,76(sp)
   111c8:	6c80a0ef          	jal	ra,1b890 <__sprint_r>
   111cc:	10051263          	bnez	a0,112d0 <_vfprintf_r+0xe94>
   111d0:	04c12883          	lw	a7,76(sp)
   111d4:	000d8413          	mv	s0,s11
   111d8:	d1cff06f          	j	106f4 <_vfprintf_r+0x2b8>
   111dc:	0fc12603          	lw	a2,252(sp)
   111e0:	0f812683          	lw	a3,248(sp)
   111e4:	00015b97          	auipc	s7,0x15
   111e8:	c38b8b93          	addi	s7,s7,-968 # 25e1c <zeroes.0>
   111ec:	093b5463          	bge	s6,s3,11274 <_vfprintf_r+0xe38>
   111f0:	00040793          	mv	a5,s0
   111f4:	00700f13          	li	t5,7
   111f8:	00098413          	mv	s0,s3
   111fc:	00090993          	mv	s3,s2
   11200:	00088913          	mv	s2,a7
   11204:	00c0006f          	j	11210 <_vfprintf_r+0xdd4>
   11208:	ff040413          	addi	s0,s0,-16
   1120c:	048b5c63          	bge	s6,s0,11264 <_vfprintf_r+0xe28>
   11210:	01060613          	addi	a2,a2,16
   11214:	00168693          	addi	a3,a3,1
   11218:	00015717          	auipc	a4,0x15
   1121c:	c0470713          	addi	a4,a4,-1020 # 25e1c <zeroes.0>
   11220:	00e7a023          	sw	a4,0(a5)
   11224:	0167a223          	sw	s6,4(a5)
   11228:	0ec12e23          	sw	a2,252(sp)
   1122c:	0ed12c23          	sw	a3,248(sp)
   11230:	00878793          	addi	a5,a5,8
   11234:	fcdf5ae3          	bge	t5,a3,11208 <_vfprintf_r+0xdcc>
   11238:	00c12583          	lw	a1,12(sp)
   1123c:	0f410613          	addi	a2,sp,244
   11240:	000a0513          	mv	a0,s4
   11244:	64c0a0ef          	jal	ra,1b890 <__sprint_r>
   11248:	08051463          	bnez	a0,112d0 <_vfprintf_r+0xe94>
   1124c:	ff040413          	addi	s0,s0,-16
   11250:	0fc12603          	lw	a2,252(sp)
   11254:	0f812683          	lw	a3,248(sp)
   11258:	000d8793          	mv	a5,s11
   1125c:	00700f13          	li	t5,7
   11260:	fa8b48e3          	blt	s6,s0,11210 <_vfprintf_r+0xdd4>
   11264:	00090893          	mv	a7,s2
   11268:	00098913          	mv	s2,s3
   1126c:	00040993          	mv	s3,s0
   11270:	00078413          	mv	s0,a5
   11274:	00c98633          	add	a2,s3,a2
   11278:	00168693          	addi	a3,a3,1
   1127c:	01742023          	sw	s7,0(s0)
   11280:	01342223          	sw	s3,4(s0)
   11284:	0ec12e23          	sw	a2,252(sp)
   11288:	0ed12c23          	sw	a3,248(sp)
   1128c:	00700613          	li	a2,7
   11290:	00840413          	addi	s0,s0,8
   11294:	c6d65463          	bge	a2,a3,106fc <_vfprintf_r+0x2c0>
   11298:	00c12583          	lw	a1,12(sp)
   1129c:	0f410613          	addi	a2,sp,244
   112a0:	000a0513          	mv	a0,s4
   112a4:	05112623          	sw	a7,76(sp)
   112a8:	5e80a0ef          	jal	ra,1b890 <__sprint_r>
   112ac:	02051263          	bnez	a0,112d0 <_vfprintf_r+0xe94>
   112b0:	04c12883          	lw	a7,76(sp)
   112b4:	000d8413          	mv	s0,s11
   112b8:	c44ff06f          	j	106fc <_vfprintf_r+0x2c0>
   112bc:	00c12583          	lw	a1,12(sp)
   112c0:	0f410613          	addi	a2,sp,244
   112c4:	000a0513          	mv	a0,s4
   112c8:	5c80a0ef          	jal	ra,1b890 <__sprint_r>
   112cc:	c8050863          	beqz	a0,1075c <_vfprintf_r+0x320>
   112d0:	01412583          	lw	a1,20(sp)
   112d4:	ca058e63          	beqz	a1,10790 <_vfprintf_r+0x354>
   112d8:	02c12503          	lw	a0,44(sp)
   112dc:	730020ef          	jal	ra,13a0c <_free_r>
   112e0:	cb0ff06f          	j	10790 <_vfprintf_r+0x354>
   112e4:	000c0613          	mv	a2,s8
   112e8:	991ff06f          	j	10c78 <_vfprintf_r+0x83c>
   112ec:	01000513          	li	a0,16
   112f0:	0fc12583          	lw	a1,252(sp)
   112f4:	0f812603          	lw	a2,248(sp)
   112f8:	00015b97          	auipc	s7,0x15
   112fc:	b14b8b93          	addi	s7,s7,-1260 # 25e0c <blanks.1>
   11300:	0ad55463          	bge	a0,a3,113a8 <_vfprintf_r+0xf6c>
   11304:	04912a23          	sw	s1,84(sp)
   11308:	00040793          	mv	a5,s0
   1130c:	000b8493          	mv	s1,s7
   11310:	01000e93          	li	t4,16
   11314:	00090b93          	mv	s7,s2
   11318:	00700393          	li	t2,7
   1131c:	04512623          	sw	t0,76(sp)
   11320:	05f12823          	sw	t6,80(sp)
   11324:	00068413          	mv	s0,a3
   11328:	00088913          	mv	s2,a7
   1132c:	00c0006f          	j	11338 <_vfprintf_r+0xefc>
   11330:	ff040413          	addi	s0,s0,-16
   11334:	048eda63          	bge	t4,s0,11388 <_vfprintf_r+0xf4c>
   11338:	01058593          	addi	a1,a1,16
   1133c:	00160613          	addi	a2,a2,1
   11340:	0097a023          	sw	s1,0(a5)
   11344:	01d7a223          	sw	t4,4(a5)
   11348:	0eb12e23          	sw	a1,252(sp)
   1134c:	0ec12c23          	sw	a2,248(sp)
   11350:	00878793          	addi	a5,a5,8
   11354:	fcc3dee3          	bge	t2,a2,11330 <_vfprintf_r+0xef4>
   11358:	00c12583          	lw	a1,12(sp)
   1135c:	0f410613          	addi	a2,sp,244
   11360:	000a0513          	mv	a0,s4
   11364:	52c0a0ef          	jal	ra,1b890 <__sprint_r>
   11368:	f60514e3          	bnez	a0,112d0 <_vfprintf_r+0xe94>
   1136c:	01000e93          	li	t4,16
   11370:	ff040413          	addi	s0,s0,-16
   11374:	0fc12583          	lw	a1,252(sp)
   11378:	0f812603          	lw	a2,248(sp)
   1137c:	000d8793          	mv	a5,s11
   11380:	00700393          	li	t2,7
   11384:	fa8ecae3          	blt	t4,s0,11338 <_vfprintf_r+0xefc>
   11388:	00090893          	mv	a7,s2
   1138c:	04c12283          	lw	t0,76(sp)
   11390:	000b8913          	mv	s2,s7
   11394:	05012f83          	lw	t6,80(sp)
   11398:	00048b93          	mv	s7,s1
   1139c:	05412483          	lw	s1,84(sp)
   113a0:	00040693          	mv	a3,s0
   113a4:	00078413          	mv	s0,a5
   113a8:	00b685b3          	add	a1,a3,a1
   113ac:	00160613          	addi	a2,a2,1
   113b0:	00d42223          	sw	a3,4(s0)
   113b4:	01742023          	sw	s7,0(s0)
   113b8:	0eb12e23          	sw	a1,252(sp)
   113bc:	0ec12c23          	sw	a2,248(sp)
   113c0:	00700693          	li	a3,7
   113c4:	00840413          	addi	s0,s0,8
   113c8:	aac6d863          	bge	a3,a2,10678 <_vfprintf_r+0x23c>
   113cc:	00c12583          	lw	a1,12(sp)
   113d0:	0f410613          	addi	a2,sp,244
   113d4:	000a0513          	mv	a0,s4
   113d8:	05112a23          	sw	a7,84(sp)
   113dc:	05f12823          	sw	t6,80(sp)
   113e0:	04512623          	sw	t0,76(sp)
   113e4:	4ac0a0ef          	jal	ra,1b890 <__sprint_r>
   113e8:	ee0514e3          	bnez	a0,112d0 <_vfprintf_r+0xe94>
   113ec:	05412883          	lw	a7,84(sp)
   113f0:	05012f83          	lw	t6,80(sp)
   113f4:	04c12283          	lw	t0,76(sp)
   113f8:	000d8413          	mv	s0,s11
   113fc:	a7cff06f          	j	10678 <_vfprintf_r+0x23c>
   11400:	00c12583          	lw	a1,12(sp)
   11404:	0f410613          	addi	a2,sp,244
   11408:	000a0513          	mv	a0,s4
   1140c:	05112823          	sw	a7,80(sp)
   11410:	05f12623          	sw	t6,76(sp)
   11414:	47c0a0ef          	jal	ra,1b890 <__sprint_r>
   11418:	ea051ce3          	bnez	a0,112d0 <_vfprintf_r+0xe94>
   1141c:	05012883          	lw	a7,80(sp)
   11420:	04c12f83          	lw	t6,76(sp)
   11424:	000d8413          	mv	s0,s11
   11428:	ac4ff06f          	j	106ec <_vfprintf_r+0x2b0>
   1142c:	01000713          	li	a4,16
   11430:	0f812783          	lw	a5,248(sp)
   11434:	00015b97          	auipc	s7,0x15
   11438:	9d8b8b93          	addi	s7,s7,-1576 # 25e0c <blanks.1>
   1143c:	07275263          	bge	a4,s2,114a0 <_vfprintf_r+0x1064>
   11440:	00c12c83          	lw	s9,12(sp)
   11444:	01000993          	li	s3,16
   11448:	00700c13          	li	s8,7
   1144c:	00c0006f          	j	11458 <_vfprintf_r+0x101c>
   11450:	ff090913          	addi	s2,s2,-16
   11454:	0529d663          	bge	s3,s2,114a0 <_vfprintf_r+0x1064>
   11458:	01068693          	addi	a3,a3,16
   1145c:	00178793          	addi	a5,a5,1
   11460:	01742023          	sw	s7,0(s0)
   11464:	01342223          	sw	s3,4(s0)
   11468:	0ed12e23          	sw	a3,252(sp)
   1146c:	0ef12c23          	sw	a5,248(sp)
   11470:	00840413          	addi	s0,s0,8
   11474:	fcfc5ee3          	bge	s8,a5,11450 <_vfprintf_r+0x1014>
   11478:	0f410613          	addi	a2,sp,244
   1147c:	000c8593          	mv	a1,s9
   11480:	000a0513          	mv	a0,s4
   11484:	40c0a0ef          	jal	ra,1b890 <__sprint_r>
   11488:	e40514e3          	bnez	a0,112d0 <_vfprintf_r+0xe94>
   1148c:	ff090913          	addi	s2,s2,-16
   11490:	0fc12683          	lw	a3,252(sp)
   11494:	0f812783          	lw	a5,248(sp)
   11498:	000d8413          	mv	s0,s11
   1149c:	fb29cee3          	blt	s3,s2,11458 <_vfprintf_r+0x101c>
   114a0:	012686b3          	add	a3,a3,s2
   114a4:	00178793          	addi	a5,a5,1
   114a8:	01742023          	sw	s7,0(s0)
   114ac:	01242223          	sw	s2,4(s0)
   114b0:	0ed12e23          	sw	a3,252(sp)
   114b4:	0ef12c23          	sw	a5,248(sp)
   114b8:	00700713          	li	a4,7
   114bc:	a8f75263          	bge	a4,a5,10740 <_vfprintf_r+0x304>
   114c0:	00c12583          	lw	a1,12(sp)
   114c4:	0f410613          	addi	a2,sp,244
   114c8:	000a0513          	mv	a0,s4
   114cc:	3c40a0ef          	jal	ra,1b890 <__sprint_r>
   114d0:	e00510e3          	bnez	a0,112d0 <_vfprintf_r+0xe94>
   114d4:	0fc12683          	lw	a3,252(sp)
   114d8:	a68ff06f          	j	10740 <_vfprintf_r+0x304>
   114dc:	0dc12583          	lw	a1,220(sp)
   114e0:	7eb05e63          	blez	a1,11cdc <_vfprintf_r+0x18a0>
   114e4:	02012783          	lw	a5,32(sp)
   114e8:	00fc8733          	add	a4,s9,a5
   114ec:	04e12623          	sw	a4,76(sp)
   114f0:	01c12703          	lw	a4,28(sp)
   114f4:	00070913          	mv	s2,a4
   114f8:	36e7c463          	blt	a5,a4,11860 <_vfprintf_r+0x1424>
   114fc:	0fc12683          	lw	a3,252(sp)
   11500:	03205663          	blez	s2,1152c <_vfprintf_r+0x10f0>
   11504:	0f812603          	lw	a2,248(sp)
   11508:	012686b3          	add	a3,a3,s2
   1150c:	01942023          	sw	s9,0(s0)
   11510:	00160613          	addi	a2,a2,1
   11514:	01242223          	sw	s2,4(s0)
   11518:	0ed12e23          	sw	a3,252(sp)
   1151c:	0ec12c23          	sw	a2,248(sp)
   11520:	00700593          	li	a1,7
   11524:	00840413          	addi	s0,s0,8
   11528:	4cc5c0e3          	blt	a1,a2,121e8 <_vfprintf_r+0x1dac>
   1152c:	fff94613          	not	a2,s2
   11530:	01c12783          	lw	a5,28(sp)
   11534:	41f65613          	srai	a2,a2,0x1f
   11538:	00c978b3          	and	a7,s2,a2
   1153c:	41178933          	sub	s2,a5,a7
   11540:	41204263          	bgtz	s2,11944 <_vfprintf_r+0x1508>
   11544:	01c12783          	lw	a5,28(sp)
   11548:	400c7613          	andi	a2,s8,1024
   1154c:	00fc8cb3          	add	s9,s9,a5
   11550:	220618e3          	bnez	a2,11f80 <_vfprintf_r+0x1b44>
   11554:	0dc12903          	lw	s2,220(sp)
   11558:	02012783          	lw	a5,32(sp)
   1155c:	00f94663          	blt	s2,a5,11568 <_vfprintf_r+0x112c>
   11560:	001c7613          	andi	a2,s8,1
   11564:	4a0606e3          	beqz	a2,12210 <_vfprintf_r+0x1dd4>
   11568:	03012783          	lw	a5,48(sp)
   1156c:	0f812603          	lw	a2,248(sp)
   11570:	03412703          	lw	a4,52(sp)
   11574:	00d786b3          	add	a3,a5,a3
   11578:	00160613          	addi	a2,a2,1
   1157c:	00e42023          	sw	a4,0(s0)
   11580:	00f42223          	sw	a5,4(s0)
   11584:	0ed12e23          	sw	a3,252(sp)
   11588:	0ec12c23          	sw	a2,248(sp)
   1158c:	00700593          	li	a1,7
   11590:	00840413          	addi	s0,s0,8
   11594:	00c5d463          	bge	a1,a2,1159c <_vfprintf_r+0x1160>
   11598:	3cc0106f          	j	12964 <_vfprintf_r+0x2528>
   1159c:	02012783          	lw	a5,32(sp)
   115a0:	41278933          	sub	s2,a5,s2
   115a4:	04c12783          	lw	a5,76(sp)
   115a8:	419789b3          	sub	s3,a5,s9
   115ac:	01395463          	bge	s2,s3,115b4 <_vfprintf_r+0x1178>
   115b0:	00090993          	mv	s3,s2
   115b4:	03305863          	blez	s3,115e4 <_vfprintf_r+0x11a8>
   115b8:	0f812783          	lw	a5,248(sp)
   115bc:	013686b3          	add	a3,a3,s3
   115c0:	01942023          	sw	s9,0(s0)
   115c4:	00178793          	addi	a5,a5,1
   115c8:	01342223          	sw	s3,4(s0)
   115cc:	0ed12e23          	sw	a3,252(sp)
   115d0:	0ef12c23          	sw	a5,248(sp)
   115d4:	00700613          	li	a2,7
   115d8:	00840413          	addi	s0,s0,8
   115dc:	00f65463          	bge	a2,a5,115e4 <_vfprintf_r+0x11a8>
   115e0:	3d80106f          	j	129b8 <_vfprintf_r+0x257c>
   115e4:	fff9c793          	not	a5,s3
   115e8:	41f7d793          	srai	a5,a5,0x1f
   115ec:	00f9f9b3          	and	s3,s3,a5
   115f0:	41390933          	sub	s2,s2,s3
   115f4:	93205e63          	blez	s2,10730 <_vfprintf_r+0x2f4>
   115f8:	01000613          	li	a2,16
   115fc:	0f812783          	lw	a5,248(sp)
   11600:	00015b97          	auipc	s7,0x15
   11604:	81cb8b93          	addi	s7,s7,-2020 # 25e1c <zeroes.0>
   11608:	79265463          	bge	a2,s2,11d90 <_vfprintf_r+0x1954>
   1160c:	000b8713          	mv	a4,s7
   11610:	01000993          	li	s3,16
   11614:	00090b93          	mv	s7,s2
   11618:	00700c93          	li	s9,7
   1161c:	00048913          	mv	s2,s1
   11620:	00070493          	mv	s1,a4
   11624:	00c0006f          	j	11630 <_vfprintf_r+0x11f4>
   11628:	ff0b8b93          	addi	s7,s7,-16
   1162c:	7579da63          	bge	s3,s7,11d80 <_vfprintf_r+0x1944>
   11630:	01068693          	addi	a3,a3,16
   11634:	00178793          	addi	a5,a5,1
   11638:	00942023          	sw	s1,0(s0)
   1163c:	01342223          	sw	s3,4(s0)
   11640:	0ed12e23          	sw	a3,252(sp)
   11644:	0ef12c23          	sw	a5,248(sp)
   11648:	00840413          	addi	s0,s0,8
   1164c:	fcfcdee3          	bge	s9,a5,11628 <_vfprintf_r+0x11ec>
   11650:	00c12583          	lw	a1,12(sp)
   11654:	0f410613          	addi	a2,sp,244
   11658:	000a0513          	mv	a0,s4
   1165c:	2340a0ef          	jal	ra,1b890 <__sprint_r>
   11660:	c60518e3          	bnez	a0,112d0 <_vfprintf_r+0xe94>
   11664:	0fc12683          	lw	a3,252(sp)
   11668:	0f812783          	lw	a5,248(sp)
   1166c:	000d8413          	mv	s0,s11
   11670:	fb9ff06f          	j	11628 <_vfprintf_r+0x11ec>
   11674:	001c7693          	andi	a3,s8,1
   11678:	c4069863          	bnez	a3,10ac8 <_vfprintf_r+0x68c>
   1167c:	0f812783          	lw	a5,248(sp)
   11680:	0fc12683          	lw	a3,252(sp)
   11684:	01942023          	sw	s9,0(s0)
   11688:	00178913          	addi	s2,a5,1
   1168c:	00168713          	addi	a4,a3,1
   11690:	00c42223          	sw	a2,4(s0)
   11694:	0ee12e23          	sw	a4,252(sp)
   11698:	0f212c23          	sw	s2,248(sp)
   1169c:	00700793          	li	a5,7
   116a0:	d127d063          	bge	a5,s2,10ba0 <_vfprintf_r+0x764>
   116a4:	00c12583          	lw	a1,12(sp)
   116a8:	0f410613          	addi	a2,sp,244
   116ac:	000a0513          	mv	a0,s4
   116b0:	1e00a0ef          	jal	ra,1b890 <__sprint_r>
   116b4:	c0051ee3          	bnez	a0,112d0 <_vfprintf_r+0xe94>
   116b8:	0fc12703          	lw	a4,252(sp)
   116bc:	0f812903          	lw	s2,248(sp)
   116c0:	000d8993          	mv	s3,s11
   116c4:	cdcff06f          	j	10ba0 <_vfprintf_r+0x764>
   116c8:	02012683          	lw	a3,32(sp)
   116cc:	00100793          	li	a5,1
   116d0:	ccd7d863          	bge	a5,a3,10ba0 <_vfprintf_r+0x764>
   116d4:	01100793          	li	a5,17
   116d8:	00014b97          	auipc	s7,0x14
   116dc:	744b8b93          	addi	s7,s7,1860 # 25e1c <zeroes.0>
   116e0:	00d7d6e3          	bge	a5,a3,11eec <_vfprintf_r+0x1ab0>
   116e4:	000b8693          	mv	a3,s7
   116e8:	01000793          	li	a5,16
   116ec:	00040b93          	mv	s7,s0
   116f0:	00700c93          	li	s9,7
   116f4:	00068413          	mv	s0,a3
   116f8:	00c0006f          	j	11704 <_vfprintf_r+0x12c8>
   116fc:	ff0b8b93          	addi	s7,s7,-16
   11700:	7f77d063          	bge	a5,s7,11ee0 <_vfprintf_r+0x1aa4>
   11704:	01070713          	addi	a4,a4,16
   11708:	00190913          	addi	s2,s2,1
   1170c:	0089a023          	sw	s0,0(s3)
   11710:	00f9a223          	sw	a5,4(s3)
   11714:	0ee12e23          	sw	a4,252(sp)
   11718:	0f212c23          	sw	s2,248(sp)
   1171c:	00898993          	addi	s3,s3,8
   11720:	fd2cdee3          	bge	s9,s2,116fc <_vfprintf_r+0x12c0>
   11724:	00c12583          	lw	a1,12(sp)
   11728:	0f410613          	addi	a2,sp,244
   1172c:	000a0513          	mv	a0,s4
   11730:	1600a0ef          	jal	ra,1b890 <__sprint_r>
   11734:	b8051ee3          	bnez	a0,112d0 <_vfprintf_r+0xe94>
   11738:	0fc12703          	lw	a4,252(sp)
   1173c:	0f812903          	lw	s2,248(sp)
   11740:	000d8993          	mv	s3,s11
   11744:	01000793          	li	a5,16
   11748:	fb5ff06f          	j	116fc <_vfprintf_r+0x12c0>
   1174c:	01812703          	lw	a4,24(sp)
   11750:	01067793          	andi	a5,a2,16
   11754:	00072683          	lw	a3,0(a4)
   11758:	00470713          	addi	a4,a4,4
   1175c:	00e12c23          	sw	a4,24(sp)
   11760:	04079863          	bnez	a5,117b0 <_vfprintf_r+0x1374>
   11764:	04067793          	andi	a5,a2,64
   11768:	04078063          	beqz	a5,117a8 <_vfprintf_r+0x136c>
   1176c:	01069913          	slli	s2,a3,0x10
   11770:	01095913          	srli	s2,s2,0x10
   11774:	00000d13          	li	s10,0
   11778:	00100593          	li	a1,1
   1177c:	9bcff06f          	j	10938 <_vfprintf_r+0x4fc>
   11780:	00000913          	li	s2,0
   11784:	1c010c93          	addi	s9,sp,448
   11788:	954ff06f          	j	108dc <_vfprintf_r+0x4a0>
   1178c:	001c7793          	andi	a5,s8,1
   11790:	00079463          	bnez	a5,11798 <_vfprintf_r+0x135c>
   11794:	f9dfe06f          	j	10730 <_vfprintf_r+0x2f4>
   11798:	835ff06f          	j	10fcc <_vfprintf_r+0xb90>
   1179c:	0004c883          	lbu	a7,0(s1)
   117a0:	00f12c23          	sw	a5,24(sp)
   117a4:	e31fe06f          	j	105d4 <_vfprintf_r+0x198>
   117a8:	20067793          	andi	a5,a2,512
   117ac:	2a0794e3          	bnez	a5,12254 <_vfprintf_r+0x1e18>
   117b0:	00068913          	mv	s2,a3
   117b4:	00000d13          	li	s10,0
   117b8:	00100593          	li	a1,1
   117bc:	97cff06f          	j	10938 <_vfprintf_r+0x4fc>
   117c0:	200c7793          	andi	a5,s8,512
   117c4:	26079ce3          	bnez	a5,1223c <_vfprintf_r+0x1e00>
   117c8:	00068913          	mv	s2,a3
   117cc:	00000d13          	li	s10,0
   117d0:	960ff06f          	j	10930 <_vfprintf_r+0x4f4>
   117d4:	200c7793          	andi	a5,s8,512
   117d8:	240798e3          	bnez	a5,12228 <_vfprintf_r+0x1dec>
   117dc:	41f6dd13          	srai	s10,a3,0x1f
   117e0:	00068913          	mv	s2,a3
   117e4:	000d0793          	mv	a5,s10
   117e8:	8c8ff06f          	j	108b0 <_vfprintf_r+0x474>
   117ec:	01812783          	lw	a5,24(sp)
   117f0:	0007a683          	lw	a3,0(a5)
   117f4:	00478793          	addi	a5,a5,4
   117f8:	00f12c23          	sw	a5,24(sp)
   117fc:	0006a803          	lw	a6,0(a3)
   11800:	0046a583          	lw	a1,4(a3)
   11804:	0086a603          	lw	a2,8(a3)
   11808:	00c6a683          	lw	a3,12(a3)
   1180c:	9dcff06f          	j	109e8 <_vfprintf_r+0x5ac>
   11810:	010c7793          	andi	a5,s8,16
   11814:	60079863          	bnez	a5,11e24 <_vfprintf_r+0x19e8>
   11818:	040c7793          	andi	a5,s8,64
   1181c:	240794e3          	bnez	a5,12264 <_vfprintf_r+0x1e28>
   11820:	200c7713          	andi	a4,s8,512
   11824:	60070063          	beqz	a4,11e24 <_vfprintf_r+0x19e8>
   11828:	01812783          	lw	a5,24(sp)
   1182c:	01012703          	lw	a4,16(sp)
   11830:	0007a783          	lw	a5,0(a5)
   11834:	00e78023          	sb	a4,0(a5)
   11838:	ef4ff06f          	j	10f2c <_vfprintf_r+0xaf0>
   1183c:	03c12783          	lw	a5,60(sp)
   11840:	0004c883          	lbu	a7,0(s1)
   11844:	00079463          	bnez	a5,1184c <_vfprintf_r+0x1410>
   11848:	d8dfe06f          	j	105d4 <_vfprintf_r+0x198>
   1184c:	0007c783          	lbu	a5,0(a5)
   11850:	00079463          	bnez	a5,11858 <_vfprintf_r+0x141c>
   11854:	d81fe06f          	j	105d4 <_vfprintf_r+0x198>
   11858:	400c6c13          	ori	s8,s8,1024
   1185c:	d79fe06f          	j	105d4 <_vfprintf_r+0x198>
   11860:	00078913          	mv	s2,a5
   11864:	0fc12683          	lw	a3,252(sp)
   11868:	c9204ee3          	bgtz	s2,11504 <_vfprintf_r+0x10c8>
   1186c:	cc1ff06f          	j	1152c <_vfprintf_r+0x10f0>
   11870:	000c0613          	mv	a2,s8
   11874:	e08ff06f          	j	10e7c <_vfprintf_r+0xa40>
   11878:	00014797          	auipc	a5,0x14
   1187c:	37078793          	addi	a5,a5,880 # 25be8 <__clzsi2+0xb0>
   11880:	02f12c23          	sw	a5,56(sp)
   11884:	020c7793          	andi	a5,s8,32
   11888:	2e078e63          	beqz	a5,11b84 <_vfprintf_r+0x1748>
   1188c:	01812783          	lw	a5,24(sp)
   11890:	00778b93          	addi	s7,a5,7
   11894:	ff8bfb93          	andi	s7,s7,-8
   11898:	000ba903          	lw	s2,0(s7)
   1189c:	004bad03          	lw	s10,4(s7)
   118a0:	008b8793          	addi	a5,s7,8
   118a4:	00f12c23          	sw	a5,24(sp)
   118a8:	001c7793          	andi	a5,s8,1
   118ac:	00078e63          	beqz	a5,118c8 <_vfprintf_r+0x148c>
   118b0:	01a967b3          	or	a5,s2,s10
   118b4:	00078a63          	beqz	a5,118c8 <_vfprintf_r+0x148c>
   118b8:	03000793          	li	a5,48
   118bc:	0cf10c23          	sb	a5,216(sp)
   118c0:	0d110ca3          	sb	a7,217(sp)
   118c4:	002c6c13          	ori	s8,s8,2
   118c8:	bffc7613          	andi	a2,s8,-1025
   118cc:	00200593          	li	a1,2
   118d0:	868ff06f          	j	10938 <_vfprintf_r+0x4fc>
   118d4:	00014797          	auipc	a5,0x14
   118d8:	30078793          	addi	a5,a5,768 # 25bd4 <__clzsi2+0x9c>
   118dc:	02f12c23          	sw	a5,56(sp)
   118e0:	fa5ff06f          	j	11884 <_vfprintf_r+0x1448>
   118e4:	00c12583          	lw	a1,12(sp)
   118e8:	0f410613          	addi	a2,sp,244
   118ec:	000a0513          	mv	a0,s4
   118f0:	7a1090ef          	jal	ra,1b890 <__sprint_r>
   118f4:	9c051ee3          	bnez	a0,112d0 <_vfprintf_r+0xe94>
   118f8:	0fc12683          	lw	a3,252(sp)
   118fc:	000d8413          	mv	s0,s11
   11900:	efcff06f          	j	10ffc <_vfprintf_r+0xbc0>
   11904:	0014c883          	lbu	a7,1(s1)
   11908:	020c6c13          	ori	s8,s8,32
   1190c:	00148493          	addi	s1,s1,1
   11910:	cc5fe06f          	j	105d4 <_vfprintf_r+0x198>
   11914:	0014c883          	lbu	a7,1(s1)
   11918:	200c6c13          	ori	s8,s8,512
   1191c:	00148493          	addi	s1,s1,1
   11920:	cb5fe06f          	j	105d4 <_vfprintf_r+0x198>
   11924:	00600793          	li	a5,6
   11928:	00098913          	mv	s2,s3
   1192c:	0d37eee3          	bltu	a5,s3,12208 <_vfprintf_r+0x1dcc>
   11930:	00090d13          	mv	s10,s2
   11934:	01712c23          	sw	s7,24(sp)
   11938:	00014c97          	auipc	s9,0x14
   1193c:	2c4c8c93          	addi	s9,s9,708 # 25bfc <__clzsi2+0xc4>
   11940:	d09fe06f          	j	10648 <_vfprintf_r+0x20c>
   11944:	01000593          	li	a1,16
   11948:	0f812603          	lw	a2,248(sp)
   1194c:	00014b97          	auipc	s7,0x14
   11950:	4d0b8b93          	addi	s7,s7,1232 # 25e1c <zeroes.0>
   11954:	5f25d463          	bge	a1,s2,11f3c <_vfprintf_r+0x1b00>
   11958:	000b8793          	mv	a5,s7
   1195c:	01000e13          	li	t3,16
   11960:	00090b93          	mv	s7,s2
   11964:	00700993          	li	s3,7
   11968:	00048913          	mv	s2,s1
   1196c:	00078493          	mv	s1,a5
   11970:	00c0006f          	j	1197c <_vfprintf_r+0x1540>
   11974:	ff0b8b93          	addi	s7,s7,-16
   11978:	5b7e5a63          	bge	t3,s7,11f2c <_vfprintf_r+0x1af0>
   1197c:	01068693          	addi	a3,a3,16
   11980:	00160613          	addi	a2,a2,1
   11984:	00942023          	sw	s1,0(s0)
   11988:	01c42223          	sw	t3,4(s0)
   1198c:	0ed12e23          	sw	a3,252(sp)
   11990:	0ec12c23          	sw	a2,248(sp)
   11994:	00840413          	addi	s0,s0,8
   11998:	fcc9dee3          	bge	s3,a2,11974 <_vfprintf_r+0x1538>
   1199c:	00c12583          	lw	a1,12(sp)
   119a0:	0f410613          	addi	a2,sp,244
   119a4:	000a0513          	mv	a0,s4
   119a8:	6e9090ef          	jal	ra,1b890 <__sprint_r>
   119ac:	920512e3          	bnez	a0,112d0 <_vfprintf_r+0xe94>
   119b0:	0fc12683          	lw	a3,252(sp)
   119b4:	0f812603          	lw	a2,248(sp)
   119b8:	000d8413          	mv	s0,s11
   119bc:	01000e13          	li	t3,16
   119c0:	fb5ff06f          	j	11974 <_vfprintf_r+0x1538>
   119c4:	07800793          	li	a5,120
   119c8:	03000693          	li	a3,48
   119cc:	0cf10ca3          	sb	a5,217(sp)
   119d0:	002c6793          	ori	a5,s8,2
   119d4:	0cd10c23          	sb	a3,216(sp)
   119d8:	04f12623          	sw	a5,76(sp)
   119dc:	06300693          	li	a3,99
   119e0:	00012a23          	sw	zero,20(sp)
   119e4:	15c10c93          	addi	s9,sp,348
   119e8:	0f36c8e3          	blt	a3,s3,122d8 <_vfprintf_r+0x1e9c>
   119ec:	10c12e03          	lw	t3,268(sp)
   119f0:	102c6793          	ori	a5,s8,258
   119f4:	04f12e23          	sw	a5,92(sp)
   119f8:	06012823          	sw	zero,112(sp)
   119fc:	10012f83          	lw	t6,256(sp)
   11a00:	10412f03          	lw	t5,260(sp)
   11a04:	10812e83          	lw	t4,264(sp)
   11a08:	080e48e3          	bltz	t3,12298 <_vfprintf_r+0x1e5c>
   11a0c:	06100713          	li	a4,97
   11a10:	00e89463          	bne	a7,a4,11a18 <_vfprintf_r+0x15dc>
   11a14:	1f80106f          	j	12c0c <_vfprintf_r+0x27d0>
   11a18:	fbf88713          	addi	a4,a7,-65
   11a1c:	02500693          	li	a3,37
   11a20:	02e6e063          	bltu	a3,a4,11a40 <_vfprintf_r+0x1604>
   11a24:	00014697          	auipc	a3,0x14
   11a28:	35068693          	addi	a3,a3,848 # 25d74 <__clzsi2+0x23c>
   11a2c:	00271713          	slli	a4,a4,0x2
   11a30:	00d70733          	add	a4,a4,a3
   11a34:	00072703          	lw	a4,0(a4)
   11a38:	00d70733          	add	a4,a4,a3
   11a3c:	00070067          	jr	a4
   11a40:	00098693          	mv	a3,s3
   11a44:	00200613          	li	a2,2
   11a48:	0c010913          	addi	s2,sp,192
   11a4c:	0dc10713          	addi	a4,sp,220
   11a50:	0ec10813          	addi	a6,sp,236
   11a54:	0e010793          	addi	a5,sp,224
   11a58:	00090593          	mv	a1,s2
   11a5c:	000a0513          	mv	a0,s4
   11a60:	05112a23          	sw	a7,84(sp)
   11a64:	04d12823          	sw	a3,80(sp)
   11a68:	0df12023          	sw	t6,192(sp)
   11a6c:	03f12423          	sw	t6,40(sp)
   11a70:	0de12223          	sw	t5,196(sp)
   11a74:	03e12223          	sw	t5,36(sp)
   11a78:	0dd12423          	sw	t4,200(sp)
   11a7c:	03d12023          	sw	t4,32(sp)
   11a80:	0dc12623          	sw	t3,204(sp)
   11a84:	01c12e23          	sw	t3,28(sp)
   11a88:	4f5030ef          	jal	ra,1577c <_ldtoa_r>
   11a8c:	05412883          	lw	a7,84(sp)
   11a90:	06700713          	li	a4,103
   11a94:	01c12e03          	lw	t3,28(sp)
   11a98:	02012e83          	lw	t4,32(sp)
   11a9c:	02412f03          	lw	t5,36(sp)
   11aa0:	02812f83          	lw	t6,40(sp)
   11aa4:	05012683          	lw	a3,80(sp)
   11aa8:	00050c93          	mv	s9,a0
   11aac:	04e888e3          	beq	a7,a4,122fc <_vfprintf_r+0x1ec0>
   11ab0:	04700713          	li	a4,71
   11ab4:	04e884e3          	beq	a7,a4,122fc <_vfprintf_r+0x1ec0>
   11ab8:	fdf8fb93          	andi	s7,a7,-33
   11abc:	04600593          	li	a1,70
   11ac0:	00d50d33          	add	s10,a0,a3
   11ac4:	0b010c13          	addi	s8,sp,176
   11ac8:	00bb9c63          	bne	s7,a1,11ae0 <_vfprintf_r+0x16a4>
   11acc:	00054503          	lbu	a0,0(a0)
   11ad0:	03000593          	li	a1,48
   11ad4:	18b50ce3          	beq	a0,a1,1246c <_vfprintf_r+0x2030>
   11ad8:	0dc12683          	lw	a3,220(sp)
   11adc:	00dd0d33          	add	s10,s10,a3
   11ae0:	000c0593          	mv	a1,s8
   11ae4:	00090513          	mv	a0,s2
   11ae8:	01112e23          	sw	a7,28(sp)
   11aec:	0df12023          	sw	t6,192(sp)
   11af0:	0de12223          	sw	t5,196(sp)
   11af4:	0dd12423          	sw	t4,200(sp)
   11af8:	0dc12623          	sw	t3,204(sp)
   11afc:	0a012823          	sw	zero,176(sp)
   11b00:	0a012a23          	sw	zero,180(sp)
   11b04:	0a012c23          	sw	zero,184(sp)
   11b08:	0a012e23          	sw	zero,188(sp)
   11b0c:	69c100ef          	jal	ra,221a8 <__eqtf2>
   11b10:	01c12883          	lw	a7,28(sp)
   11b14:	000d0c13          	mv	s8,s10
   11b18:	02050263          	beqz	a0,11b3c <_vfprintf_r+0x1700>
   11b1c:	0ec12c03          	lw	s8,236(sp)
   11b20:	01ac7e63          	bgeu	s8,s10,11b3c <_vfprintf_r+0x1700>
   11b24:	03000593          	li	a1,48
   11b28:	001c0793          	addi	a5,s8,1
   11b2c:	0ef12623          	sw	a5,236(sp)
   11b30:	00bc0023          	sb	a1,0(s8)
   11b34:	0ec12c03          	lw	s8,236(sp)
   11b38:	ffac68e3          	bltu	s8,s10,11b28 <_vfprintf_r+0x16ec>
   11b3c:	419c07b3          	sub	a5,s8,s9
   11b40:	02f12023          	sw	a5,32(sp)
   11b44:	0dc12703          	lw	a4,220(sp)
   11b48:	04700693          	li	a3,71
   11b4c:	00e12e23          	sw	a4,28(sp)
   11b50:	7cdb8463          	beq	s7,a3,12318 <_vfprintf_r+0x1edc>
   11b54:	04600693          	li	a3,70
   11b58:	74db84e3          	beq	s7,a3,12aa0 <_vfprintf_r+0x2664>
   11b5c:	fff70913          	addi	s2,a4,-1
   11b60:	0d212e23          	sw	s2,220(sp)
   11b64:	06100693          	li	a3,97
   11b68:	00d89463          	bne	a7,a3,11b70 <_vfprintf_r+0x1734>
   11b6c:	26c0106f          	j	12dd8 <_vfprintf_r+0x299c>
   11b70:	04100613          	li	a2,65
   11b74:	05000693          	li	a3,80
   11b78:	7ac89e63          	bne	a7,a2,12334 <_vfprintf_r+0x1ef8>
   11b7c:	00100613          	li	a2,1
   11b80:	7bc0006f          	j	1233c <_vfprintf_r+0x1f00>
   11b84:	01812703          	lw	a4,24(sp)
   11b88:	010c7793          	andi	a5,s8,16
   11b8c:	00072683          	lw	a3,0(a4)
   11b90:	00470713          	addi	a4,a4,4
   11b94:	00e12c23          	sw	a4,24(sp)
   11b98:	06079663          	bnez	a5,11c04 <_vfprintf_r+0x17c8>
   11b9c:	040c7793          	andi	a5,s8,64
   11ba0:	04078e63          	beqz	a5,11bfc <_vfprintf_r+0x17c0>
   11ba4:	01069913          	slli	s2,a3,0x10
   11ba8:	01095913          	srli	s2,s2,0x10
   11bac:	00000d13          	li	s10,0
   11bb0:	cf9ff06f          	j	118a8 <_vfprintf_r+0x146c>
   11bb4:	00c12583          	lw	a1,12(sp)
   11bb8:	0f410613          	addi	a2,sp,244
   11bbc:	000a0513          	mv	a0,s4
   11bc0:	4d1090ef          	jal	ra,1b890 <__sprint_r>
   11bc4:	f0051663          	bnez	a0,112d0 <_vfprintf_r+0xe94>
   11bc8:	0fc12683          	lw	a3,252(sp)
   11bcc:	0f812903          	lw	s2,248(sp)
   11bd0:	000d8993          	mv	s3,s11
   11bd4:	f25fe06f          	j	10af8 <_vfprintf_r+0x6bc>
   11bd8:	00c12583          	lw	a1,12(sp)
   11bdc:	0f410613          	addi	a2,sp,244
   11be0:	000a0513          	mv	a0,s4
   11be4:	4ad090ef          	jal	ra,1b890 <__sprint_r>
   11be8:	ee051463          	bnez	a0,112d0 <_vfprintf_r+0xe94>
   11bec:	0fc12703          	lw	a4,252(sp)
   11bf0:	0f812903          	lw	s2,248(sp)
   11bf4:	000d8993          	mv	s3,s11
   11bf8:	f31fe06f          	j	10b28 <_vfprintf_r+0x6ec>
   11bfc:	200c7793          	andi	a5,s8,512
   11c00:	64079463          	bnez	a5,12248 <_vfprintf_r+0x1e0c>
   11c04:	00068913          	mv	s2,a3
   11c08:	00000d13          	li	s10,0
   11c0c:	c9dff06f          	j	118a8 <_vfprintf_r+0x146c>
   11c10:	1c010c93          	addi	s9,sp,448
   11c14:	00000793          	li	a5,0
   11c18:	00912a23          	sw	s1,20(sp)
   11c1c:	03312423          	sw	s3,40(sp)
   11c20:	40067c13          	andi	s8,a2,1024
   11c24:	000c8993          	mv	s3,s9
   11c28:	0ff00b93          	li	s7,255
   11c2c:	000a0c93          	mv	s9,s4
   11c30:	00078493          	mv	s1,a5
   11c34:	00040a13          	mv	s4,s0
   11c38:	01112e23          	sw	a7,28(sp)
   11c3c:	03c12403          	lw	s0,60(sp)
   11c40:	02c12223          	sw	a2,36(sp)
   11c44:	0240006f          	j	11c68 <_vfprintf_r+0x182c>
   11c48:	00a00613          	li	a2,10
   11c4c:	00000693          	li	a3,0
   11c50:	00090513          	mv	a0,s2
   11c54:	000d0593          	mv	a1,s10
   11c58:	0e90e0ef          	jal	ra,20540 <__udivdi3>
   11c5c:	4e0d06e3          	beqz	s10,12948 <_vfprintf_r+0x250c>
   11c60:	00050913          	mv	s2,a0
   11c64:	00058d13          	mv	s10,a1
   11c68:	00a00613          	li	a2,10
   11c6c:	00000693          	li	a3,0
   11c70:	00090513          	mv	a0,s2
   11c74:	000d0593          	mv	a1,s10
   11c78:	7010e0ef          	jal	ra,20b78 <__umoddi3>
   11c7c:	03050513          	addi	a0,a0,48
   11c80:	fea98fa3          	sb	a0,-1(s3)
   11c84:	00148493          	addi	s1,s1,1
   11c88:	fff98993          	addi	s3,s3,-1
   11c8c:	fa0c0ee3          	beqz	s8,11c48 <_vfprintf_r+0x180c>
   11c90:	00044703          	lbu	a4,0(s0)
   11c94:	fae49ae3          	bne	s1,a4,11c48 <_vfprintf_r+0x180c>
   11c98:	fb7488e3          	beq	s1,s7,11c48 <_vfprintf_r+0x180c>
   11c9c:	4c0d1e63          	bnez	s10,12178 <_vfprintf_r+0x1d3c>
   11ca0:	00900713          	li	a4,9
   11ca4:	4d276a63          	bltu	a4,s2,12178 <_vfprintf_r+0x1d3c>
   11ca8:	02412603          	lw	a2,36(sp)
   11cac:	02812e23          	sw	s0,60(sp)
   11cb0:	1c010793          	addi	a5,sp,448
   11cb4:	000a0413          	mv	s0,s4
   11cb8:	000c8a13          	mv	s4,s9
   11cbc:	00098c93          	mv	s9,s3
   11cc0:	02912023          	sw	s1,32(sp)
   11cc4:	01c12883          	lw	a7,28(sp)
   11cc8:	01412483          	lw	s1,20(sp)
   11ccc:	02812983          	lw	s3,40(sp)
   11cd0:	41978933          	sub	s2,a5,s9
   11cd4:	00060c13          	mv	s8,a2
   11cd8:	c05fe06f          	j	108dc <_vfprintf_r+0x4a0>
   11cdc:	0fc12683          	lw	a3,252(sp)
   11ce0:	0f812603          	lw	a2,248(sp)
   11ce4:	00014517          	auipc	a0,0x14
   11ce8:	f2050513          	addi	a0,a0,-224 # 25c04 <__clzsi2+0xcc>
   11cec:	00a42023          	sw	a0,0(s0)
   11cf0:	00168693          	addi	a3,a3,1
   11cf4:	00100513          	li	a0,1
   11cf8:	00160613          	addi	a2,a2,1
   11cfc:	00a42223          	sw	a0,4(s0)
   11d00:	0ed12e23          	sw	a3,252(sp)
   11d04:	0ec12c23          	sw	a2,248(sp)
   11d08:	00700513          	li	a0,7
   11d0c:	00840413          	addi	s0,s0,8
   11d10:	4ac54463          	blt	a0,a2,121b8 <_vfprintf_r+0x1d7c>
   11d14:	12059263          	bnez	a1,11e38 <_vfprintf_r+0x19fc>
   11d18:	02012783          	lw	a5,32(sp)
   11d1c:	001c7613          	andi	a2,s8,1
   11d20:	00f66633          	or	a2,a2,a5
   11d24:	00061463          	bnez	a2,11d2c <_vfprintf_r+0x18f0>
   11d28:	a09fe06f          	j	10730 <_vfprintf_r+0x2f4>
   11d2c:	03012783          	lw	a5,48(sp)
   11d30:	0f812603          	lw	a2,248(sp)
   11d34:	03412703          	lw	a4,52(sp)
   11d38:	00d786b3          	add	a3,a5,a3
   11d3c:	00160613          	addi	a2,a2,1
   11d40:	00e42023          	sw	a4,0(s0)
   11d44:	00f42223          	sw	a5,4(s0)
   11d48:	0ed12e23          	sw	a3,252(sp)
   11d4c:	0ec12c23          	sw	a2,248(sp)
   11d50:	00700593          	li	a1,7
   11d54:	54c5cc63          	blt	a1,a2,122ac <_vfprintf_r+0x1e70>
   11d58:	00840413          	addi	s0,s0,8
   11d5c:	1100006f          	j	11e6c <_vfprintf_r+0x1a30>
   11d60:	00c12583          	lw	a1,12(sp)
   11d64:	0f410613          	addi	a2,sp,244
   11d68:	000a0513          	mv	a0,s4
   11d6c:	325090ef          	jal	ra,1b890 <__sprint_r>
   11d70:	d6051063          	bnez	a0,112d0 <_vfprintf_r+0xe94>
   11d74:	0fc12683          	lw	a3,252(sp)
   11d78:	000d8413          	mv	s0,s11
   11d7c:	a44ff06f          	j	10fc0 <_vfprintf_r+0xb84>
   11d80:	00048713          	mv	a4,s1
   11d84:	00090493          	mv	s1,s2
   11d88:	000b8913          	mv	s2,s7
   11d8c:	00070b93          	mv	s7,a4
   11d90:	012686b3          	add	a3,a3,s2
   11d94:	00178793          	addi	a5,a5,1
   11d98:	01742023          	sw	s7,0(s0)
   11d9c:	97dfe06f          	j	10718 <_vfprintf_r+0x2dc>
   11da0:	10012783          	lw	a5,256(sp)
   11da4:	0b010593          	addi	a1,sp,176
   11da8:	0c010513          	addi	a0,sp,192
   11dac:	0cf12023          	sw	a5,192(sp)
   11db0:	10412783          	lw	a5,260(sp)
   11db4:	0a012823          	sw	zero,176(sp)
   11db8:	0a012a23          	sw	zero,180(sp)
   11dbc:	0cf12223          	sw	a5,196(sp)
   11dc0:	10812783          	lw	a5,264(sp)
   11dc4:	0a012c23          	sw	zero,184(sp)
   11dc8:	0a012e23          	sw	zero,188(sp)
   11dcc:	0cf12423          	sw	a5,200(sp)
   11dd0:	10c12783          	lw	a5,268(sp)
   11dd4:	0cf12623          	sw	a5,204(sp)
   11dd8:	5f8100ef          	jal	ra,223d0 <__letf2>
   11ddc:	01412883          	lw	a7,20(sp)
   11de0:	36054ae3          	bltz	a0,12954 <_vfprintf_r+0x2518>
   11de4:	0d714683          	lbu	a3,215(sp)
   11de8:	04700613          	li	a2,71
   11dec:	00014c97          	auipc	s9,0x14
   11df0:	dd8c8c93          	addi	s9,s9,-552 # 25bc4 <__clzsi2+0x8c>
   11df4:	3f164463          	blt	a2,a7,121dc <_vfprintf_r+0x1da0>
   11df8:	00012a23          	sw	zero,20(sp)
   11dfc:	02012423          	sw	zero,40(sp)
   11e00:	02012223          	sw	zero,36(sp)
   11e04:	00012e23          	sw	zero,28(sp)
   11e08:	f7fc7c13          	andi	s8,s8,-129
   11e0c:	00300d13          	li	s10,3
   11e10:	00300913          	li	s2,3
   11e14:	00000993          	li	s3,0
   11e18:	00068463          	beqz	a3,11e20 <_vfprintf_r+0x19e4>
   11e1c:	ae5fe06f          	j	10900 <_vfprintf_r+0x4c4>
   11e20:	83dfe06f          	j	1065c <_vfprintf_r+0x220>
   11e24:	01812783          	lw	a5,24(sp)
   11e28:	01012703          	lw	a4,16(sp)
   11e2c:	0007a783          	lw	a5,0(a5)
   11e30:	00e7a023          	sw	a4,0(a5)
   11e34:	8f8ff06f          	j	10f2c <_vfprintf_r+0xaf0>
   11e38:	03012783          	lw	a5,48(sp)
   11e3c:	0f812603          	lw	a2,248(sp)
   11e40:	03412703          	lw	a4,52(sp)
   11e44:	00d786b3          	add	a3,a5,a3
   11e48:	00160613          	addi	a2,a2,1
   11e4c:	00e42023          	sw	a4,0(s0)
   11e50:	00f42223          	sw	a5,4(s0)
   11e54:	0ed12e23          	sw	a3,252(sp)
   11e58:	0ec12c23          	sw	a2,248(sp)
   11e5c:	00700513          	li	a0,7
   11e60:	00840413          	addi	s0,s0,8
   11e64:	44c54463          	blt	a0,a2,122ac <_vfprintf_r+0x1e70>
   11e68:	3805c0e3          	bltz	a1,129e8 <_vfprintf_r+0x25ac>
   11e6c:	02012783          	lw	a5,32(sp)
   11e70:	00160613          	addi	a2,a2,1
   11e74:	01942023          	sw	s9,0(s0)
   11e78:	00d786b3          	add	a3,a5,a3
   11e7c:	00f42223          	sw	a5,4(s0)
   11e80:	0ed12e23          	sw	a3,252(sp)
   11e84:	0ec12c23          	sw	a2,248(sp)
   11e88:	00700793          	li	a5,7
   11e8c:	00c7c463          	blt	a5,a2,11e94 <_vfprintf_r+0x1a58>
   11e90:	89dfe06f          	j	1072c <_vfprintf_r+0x2f0>
   11e94:	d39fe06f          	j	10bcc <_vfprintf_r+0x790>
   11e98:	000c8513          	mv	a0,s9
   11e9c:	05112623          	sw	a7,76(sp)
   11ea0:	5ed060ef          	jal	ra,18c8c <strlen>
   11ea4:	0d714683          	lbu	a3,215(sp)
   11ea8:	fff54813          	not	a6,a0
   11eac:	41f85813          	srai	a6,a6,0x1f
   11eb0:	01712c23          	sw	s7,24(sp)
   11eb4:	00012a23          	sw	zero,20(sp)
   11eb8:	02012423          	sw	zero,40(sp)
   11ebc:	02012223          	sw	zero,36(sp)
   11ec0:	00012e23          	sw	zero,28(sp)
   11ec4:	04c12883          	lw	a7,76(sp)
   11ec8:	00050913          	mv	s2,a0
   11ecc:	01057d33          	and	s10,a0,a6
   11ed0:	00000993          	li	s3,0
   11ed4:	00068463          	beqz	a3,11edc <_vfprintf_r+0x1aa0>
   11ed8:	a29fe06f          	j	10900 <_vfprintf_r+0x4c4>
   11edc:	f80fe06f          	j	1065c <_vfprintf_r+0x220>
   11ee0:	00040793          	mv	a5,s0
   11ee4:	000b8413          	mv	s0,s7
   11ee8:	00078b93          	mv	s7,a5
   11eec:	00870733          	add	a4,a4,s0
   11ef0:	00190913          	addi	s2,s2,1
   11ef4:	0179a023          	sw	s7,0(s3)
   11ef8:	c91fe06f          	j	10b88 <_vfprintf_r+0x74c>
   11efc:	10c12783          	lw	a5,268(sp)
   11f00:	3807d663          	bgez	a5,1228c <_vfprintf_r+0x1e50>
   11f04:	02d00793          	li	a5,45
   11f08:	0cf10ba3          	sb	a5,215(sp)
   11f0c:	02d00693          	li	a3,45
   11f10:	04700613          	li	a2,71
   11f14:	00014c97          	auipc	s9,0x14
   11f18:	cb8c8c93          	addi	s9,s9,-840 # 25bcc <__clzsi2+0x94>
   11f1c:	ed165ee3          	bge	a2,a7,11df8 <_vfprintf_r+0x19bc>
   11f20:	00014c97          	auipc	s9,0x14
   11f24:	cb0c8c93          	addi	s9,s9,-848 # 25bd0 <__clzsi2+0x98>
   11f28:	ed1ff06f          	j	11df8 <_vfprintf_r+0x19bc>
   11f2c:	00048793          	mv	a5,s1
   11f30:	00090493          	mv	s1,s2
   11f34:	000b8913          	mv	s2,s7
   11f38:	00078b93          	mv	s7,a5
   11f3c:	00d906b3          	add	a3,s2,a3
   11f40:	00160613          	addi	a2,a2,1
   11f44:	01742023          	sw	s7,0(s0)
   11f48:	01242223          	sw	s2,4(s0)
   11f4c:	0ed12e23          	sw	a3,252(sp)
   11f50:	0ec12c23          	sw	a2,248(sp)
   11f54:	00700593          	li	a1,7
   11f58:	00840413          	addi	s0,s0,8
   11f5c:	dec5d463          	bge	a1,a2,11544 <_vfprintf_r+0x1108>
   11f60:	00c12583          	lw	a1,12(sp)
   11f64:	0f410613          	addi	a2,sp,244
   11f68:	000a0513          	mv	a0,s4
   11f6c:	125090ef          	jal	ra,1b890 <__sprint_r>
   11f70:	b6051063          	bnez	a0,112d0 <_vfprintf_r+0xe94>
   11f74:	0fc12683          	lw	a3,252(sp)
   11f78:	000d8413          	mv	s0,s11
   11f7c:	dc8ff06f          	j	11544 <_vfprintf_r+0x1108>
   11f80:	02412903          	lw	s2,36(sp)
   11f84:	04912823          	sw	s1,80(sp)
   11f88:	05812a23          	sw	s8,84(sp)
   11f8c:	03a12223          	sw	s10,36(sp)
   11f90:	05512c23          	sw	s5,88(sp)
   11f94:	00040713          	mv	a4,s0
   11f98:	03c12c03          	lw	s8,60(sp)
   11f9c:	02812403          	lw	s0,40(sp)
   11fa0:	04812d03          	lw	s10,72(sp)
   11fa4:	00c12483          	lw	s1,12(sp)
   11fa8:	00700e13          	li	t3,7
   11fac:	01000993          	li	s3,16
   11fb0:	00014b97          	auipc	s7,0x14
   11fb4:	e6cb8b93          	addi	s7,s7,-404 # 25e1c <zeroes.0>
   11fb8:	08090863          	beqz	s2,12048 <_vfprintf_r+0x1c0c>
   11fbc:	16040263          	beqz	s0,12120 <_vfprintf_r+0x1ce4>
   11fc0:	fff40413          	addi	s0,s0,-1
   11fc4:	04412783          	lw	a5,68(sp)
   11fc8:	01a686b3          	add	a3,a3,s10
   11fcc:	01a72223          	sw	s10,4(a4)
   11fd0:	00f72023          	sw	a5,0(a4)
   11fd4:	0f812783          	lw	a5,248(sp)
   11fd8:	0ed12e23          	sw	a3,252(sp)
   11fdc:	00870713          	addi	a4,a4,8
   11fe0:	00178793          	addi	a5,a5,1
   11fe4:	0ef12c23          	sw	a5,248(sp)
   11fe8:	14fe4263          	blt	t3,a5,1212c <_vfprintf_r+0x1cf0>
   11fec:	04c12783          	lw	a5,76(sp)
   11ff0:	000c4603          	lbu	a2,0(s8)
   11ff4:	41978ab3          	sub	s5,a5,s9
   11ff8:	01565463          	bge	a2,s5,12000 <_vfprintf_r+0x1bc4>
   11ffc:	00060a93          	mv	s5,a2
   12000:	03505663          	blez	s5,1202c <_vfprintf_r+0x1bf0>
   12004:	0f812603          	lw	a2,248(sp)
   12008:	015686b3          	add	a3,a3,s5
   1200c:	01972023          	sw	s9,0(a4)
   12010:	00160613          	addi	a2,a2,1
   12014:	01572223          	sw	s5,4(a4)
   12018:	0ed12e23          	sw	a3,252(sp)
   1201c:	0ec12c23          	sw	a2,248(sp)
   12020:	12ce4863          	blt	t3,a2,12150 <_vfprintf_r+0x1d14>
   12024:	000c4603          	lbu	a2,0(s8)
   12028:	00870713          	addi	a4,a4,8
   1202c:	fffac593          	not	a1,s5
   12030:	41f5d593          	srai	a1,a1,0x1f
   12034:	00baf7b3          	and	a5,s5,a1
   12038:	40f60ab3          	sub	s5,a2,a5
   1203c:	03504c63          	bgtz	s5,12074 <_vfprintf_r+0x1c38>
   12040:	00cc8cb3          	add	s9,s9,a2
   12044:	f6091ce3          	bnez	s2,11fbc <_vfprintf_r+0x1b80>
   12048:	f6041ce3          	bnez	s0,11fc0 <_vfprintf_r+0x1b84>
   1204c:	04c12783          	lw	a5,76(sp)
   12050:	03812e23          	sw	s8,60(sp)
   12054:	05012483          	lw	s1,80(sp)
   12058:	05412c03          	lw	s8,84(sp)
   1205c:	05812a83          	lw	s5,88(sp)
   12060:	02412d03          	lw	s10,36(sp)
   12064:	00070413          	mv	s0,a4
   12068:	cf97f663          	bgeu	a5,s9,11554 <_vfprintf_r+0x1118>
   1206c:	00078c93          	mv	s9,a5
   12070:	ce4ff06f          	j	11554 <_vfprintf_r+0x1118>
   12074:	0f812603          	lw	a2,248(sp)
   12078:	00014597          	auipc	a1,0x14
   1207c:	da458593          	addi	a1,a1,-604 # 25e1c <zeroes.0>
   12080:	0759da63          	bge	s3,s5,120f4 <_vfprintf_r+0x1cb8>
   12084:	00812e23          	sw	s0,28(sp)
   12088:	000a8413          	mv	s0,s5
   1208c:	000b8a93          	mv	s5,s7
   12090:	00c0006f          	j	1209c <_vfprintf_r+0x1c60>
   12094:	ff040413          	addi	s0,s0,-16
   12098:	0489d863          	bge	s3,s0,120e8 <_vfprintf_r+0x1cac>
   1209c:	01068693          	addi	a3,a3,16
   120a0:	00160613          	addi	a2,a2,1
   120a4:	01772023          	sw	s7,0(a4)
   120a8:	01372223          	sw	s3,4(a4)
   120ac:	0ed12e23          	sw	a3,252(sp)
   120b0:	0ec12c23          	sw	a2,248(sp)
   120b4:	00870713          	addi	a4,a4,8
   120b8:	fcce5ee3          	bge	t3,a2,12094 <_vfprintf_r+0x1c58>
   120bc:	0f410613          	addi	a2,sp,244
   120c0:	00048593          	mv	a1,s1
   120c4:	000a0513          	mv	a0,s4
   120c8:	7c8090ef          	jal	ra,1b890 <__sprint_r>
   120cc:	a0051263          	bnez	a0,112d0 <_vfprintf_r+0xe94>
   120d0:	ff040413          	addi	s0,s0,-16
   120d4:	0fc12683          	lw	a3,252(sp)
   120d8:	0f812603          	lw	a2,248(sp)
   120dc:	000d8713          	mv	a4,s11
   120e0:	00700e13          	li	t3,7
   120e4:	fa89cce3          	blt	s3,s0,1209c <_vfprintf_r+0x1c60>
   120e8:	000a8593          	mv	a1,s5
   120ec:	00040a93          	mv	s5,s0
   120f0:	01c12403          	lw	s0,28(sp)
   120f4:	00da86b3          	add	a3,s5,a3
   120f8:	00160613          	addi	a2,a2,1
   120fc:	00b72023          	sw	a1,0(a4)
   12100:	01572223          	sw	s5,4(a4)
   12104:	0ed12e23          	sw	a3,252(sp)
   12108:	0ec12c23          	sw	a2,248(sp)
   1210c:	00ce46e3          	blt	t3,a2,12918 <_vfprintf_r+0x24dc>
   12110:	000c4603          	lbu	a2,0(s8)
   12114:	00870713          	addi	a4,a4,8
   12118:	00cc8cb3          	add	s9,s9,a2
   1211c:	f29ff06f          	j	12044 <_vfprintf_r+0x1c08>
   12120:	fffc0c13          	addi	s8,s8,-1
   12124:	fff90913          	addi	s2,s2,-1
   12128:	e9dff06f          	j	11fc4 <_vfprintf_r+0x1b88>
   1212c:	0f410613          	addi	a2,sp,244
   12130:	00048593          	mv	a1,s1
   12134:	000a0513          	mv	a0,s4
   12138:	758090ef          	jal	ra,1b890 <__sprint_r>
   1213c:	98051a63          	bnez	a0,112d0 <_vfprintf_r+0xe94>
   12140:	0fc12683          	lw	a3,252(sp)
   12144:	000d8713          	mv	a4,s11
   12148:	00700e13          	li	t3,7
   1214c:	ea1ff06f          	j	11fec <_vfprintf_r+0x1bb0>
   12150:	0f410613          	addi	a2,sp,244
   12154:	00048593          	mv	a1,s1
   12158:	000a0513          	mv	a0,s4
   1215c:	734090ef          	jal	ra,1b890 <__sprint_r>
   12160:	96051863          	bnez	a0,112d0 <_vfprintf_r+0xe94>
   12164:	000c4603          	lbu	a2,0(s8)
   12168:	0fc12683          	lw	a3,252(sp)
   1216c:	000d8713          	mv	a4,s11
   12170:	00700e13          	li	t3,7
   12174:	eb9ff06f          	j	1202c <_vfprintf_r+0x1bf0>
   12178:	04812783          	lw	a5,72(sp)
   1217c:	04412583          	lw	a1,68(sp)
   12180:	00000493          	li	s1,0
   12184:	40f989b3          	sub	s3,s3,a5
   12188:	00078613          	mv	a2,a5
   1218c:	00098513          	mv	a0,s3
   12190:	389060ef          	jal	ra,18d18 <strncpy>
   12194:	00144703          	lbu	a4,1(s0)
   12198:	00a00613          	li	a2,10
   1219c:	00000693          	li	a3,0
   121a0:	00e03733          	snez	a4,a4
   121a4:	00090513          	mv	a0,s2
   121a8:	000d0593          	mv	a1,s10
   121ac:	00e40433          	add	s0,s0,a4
   121b0:	3900e0ef          	jal	ra,20540 <__udivdi3>
   121b4:	aadff06f          	j	11c60 <_vfprintf_r+0x1824>
   121b8:	00c12583          	lw	a1,12(sp)
   121bc:	0f410613          	addi	a2,sp,244
   121c0:	000a0513          	mv	a0,s4
   121c4:	6cc090ef          	jal	ra,1b890 <__sprint_r>
   121c8:	90051463          	bnez	a0,112d0 <_vfprintf_r+0xe94>
   121cc:	0dc12583          	lw	a1,220(sp)
   121d0:	0fc12683          	lw	a3,252(sp)
   121d4:	000d8413          	mv	s0,s11
   121d8:	b3dff06f          	j	11d14 <_vfprintf_r+0x18d8>
   121dc:	00014c97          	auipc	s9,0x14
   121e0:	9ecc8c93          	addi	s9,s9,-1556 # 25bc8 <__clzsi2+0x90>
   121e4:	c15ff06f          	j	11df8 <_vfprintf_r+0x19bc>
   121e8:	00c12583          	lw	a1,12(sp)
   121ec:	0f410613          	addi	a2,sp,244
   121f0:	000a0513          	mv	a0,s4
   121f4:	69c090ef          	jal	ra,1b890 <__sprint_r>
   121f8:	8c051c63          	bnez	a0,112d0 <_vfprintf_r+0xe94>
   121fc:	0fc12683          	lw	a3,252(sp)
   12200:	000d8413          	mv	s0,s11
   12204:	b28ff06f          	j	1152c <_vfprintf_r+0x10f0>
   12208:	00600913          	li	s2,6
   1220c:	f24ff06f          	j	11930 <_vfprintf_r+0x14f4>
   12210:	41278933          	sub	s2,a5,s2
   12214:	04c12783          	lw	a5,76(sp)
   12218:	419789b3          	sub	s3,a5,s9
   1221c:	bd395463          	bge	s2,s3,115e4 <_vfprintf_r+0x11a8>
   12220:	00090993          	mv	s3,s2
   12224:	bc0ff06f          	j	115e4 <_vfprintf_r+0x11a8>
   12228:	01869913          	slli	s2,a3,0x18
   1222c:	41895913          	srai	s2,s2,0x18
   12230:	41f95d13          	srai	s10,s2,0x1f
   12234:	000d0793          	mv	a5,s10
   12238:	e78fe06f          	j	108b0 <_vfprintf_r+0x474>
   1223c:	0ff6f913          	zext.b	s2,a3
   12240:	00000d13          	li	s10,0
   12244:	eecfe06f          	j	10930 <_vfprintf_r+0x4f4>
   12248:	0ff6f913          	zext.b	s2,a3
   1224c:	00000d13          	li	s10,0
   12250:	e58ff06f          	j	118a8 <_vfprintf_r+0x146c>
   12254:	0ff6f913          	zext.b	s2,a3
   12258:	00000d13          	li	s10,0
   1225c:	00100593          	li	a1,1
   12260:	ed8fe06f          	j	10938 <_vfprintf_r+0x4fc>
   12264:	01812783          	lw	a5,24(sp)
   12268:	01012703          	lw	a4,16(sp)
   1226c:	0007a783          	lw	a5,0(a5)
   12270:	00e79023          	sh	a4,0(a5)
   12274:	cb9fe06f          	j	10f2c <_vfprintf_r+0xaf0>
   12278:	00c12583          	lw	a1,12(sp)
   1227c:	02c12503          	lw	a0,44(sp)
   12280:	0f410613          	addi	a2,sp,244
   12284:	60c090ef          	jal	ra,1b890 <__sprint_r>
   12288:	d08fe06f          	j	10790 <_vfprintf_r+0x354>
   1228c:	0d714683          	lbu	a3,215(sp)
   12290:	c81ff06f          	j	11f10 <_vfprintf_r+0x1ad4>
   12294:	00012a23          	sw	zero,20(sp)
   12298:	80000737          	lui	a4,0x80000
   1229c:	02d00793          	li	a5,45
   122a0:	01c74e33          	xor	t3,a4,t3
   122a4:	06f12823          	sw	a5,112(sp)
   122a8:	f64ff06f          	j	11a0c <_vfprintf_r+0x15d0>
   122ac:	00c12583          	lw	a1,12(sp)
   122b0:	0f410613          	addi	a2,sp,244
   122b4:	000a0513          	mv	a0,s4
   122b8:	5d8090ef          	jal	ra,1b890 <__sprint_r>
   122bc:	00050463          	beqz	a0,122c4 <_vfprintf_r+0x1e88>
   122c0:	810ff06f          	j	112d0 <_vfprintf_r+0xe94>
   122c4:	0dc12583          	lw	a1,220(sp)
   122c8:	0fc12683          	lw	a3,252(sp)
   122cc:	0f812603          	lw	a2,248(sp)
   122d0:	000d8413          	mv	s0,s11
   122d4:	b95ff06f          	j	11e68 <_vfprintf_r+0x1a2c>
   122d8:	00198593          	addi	a1,s3,1
   122dc:	000a0513          	mv	a0,s4
   122e0:	01112a23          	sw	a7,20(sp)
   122e4:	2a9040ef          	jal	ra,16d8c <_malloc_r>
   122e8:	01412883          	lw	a7,20(sp)
   122ec:	00050c93          	mv	s9,a0
   122f0:	360500e3          	beqz	a0,12e50 <_vfprintf_r+0x2a14>
   122f4:	00a12a23          	sw	a0,20(sp)
   122f8:	ef4ff06f          	j	119ec <_vfprintf_r+0x15b0>
   122fc:	04c12783          	lw	a5,76(sp)
   12300:	0017f713          	andi	a4,a5,1
   12304:	7c071463          	bnez	a4,12acc <_vfprintf_r+0x2690>
   12308:	0ec12c03          	lw	s8,236(sp)
   1230c:	0dc12703          	lw	a4,220(sp)
   12310:	419c07b3          	sub	a5,s8,s9
   12314:	02f12023          	sw	a5,32(sp)
   12318:	ffd00693          	li	a3,-3
   1231c:	00e12e23          	sw	a4,28(sp)
   12320:	00d74463          	blt	a4,a3,12328 <_vfprintf_r+0x1eec>
   12324:	5ae9d263          	bge	s3,a4,128c8 <_vfprintf_r+0x248c>
   12328:	fff70913          	addi	s2,a4,-1 # 7fffffff <__BSS_END__+0x7ffd8517>
   1232c:	ffe88893          	addi	a7,a7,-2
   12330:	0d212e23          	sw	s2,220(sp)
   12334:	0ff8f693          	zext.b	a3,a7
   12338:	00000613          	li	a2,0
   1233c:	0ed10223          	sb	a3,228(sp)
   12340:	02b00693          	li	a3,43
   12344:	00095863          	bgez	s2,12354 <_vfprintf_r+0x1f18>
   12348:	00100913          	li	s2,1
   1234c:	40e90933          	sub	s2,s2,a4
   12350:	02d00693          	li	a3,45
   12354:	0ed102a3          	sb	a3,229(sp)
   12358:	00900713          	li	a4,9
   1235c:	7d275463          	bge	a4,s2,12b24 <_vfprintf_r+0x26e8>
   12360:	0f310993          	addi	s3,sp,243
   12364:	000a0b93          	mv	s7,s4
   12368:	06300d13          	li	s10,99
   1236c:	00040a13          	mv	s4,s0
   12370:	00912e23          	sw	s1,28(sp)
   12374:	03112223          	sw	a7,36(sp)
   12378:	00098413          	mv	s0,s3
   1237c:	00a00593          	li	a1,10
   12380:	00090513          	mv	a0,s2
   12384:	784130ef          	jal	ra,25b08 <__modsi3>
   12388:	03050793          	addi	a5,a0,48
   1238c:	fef40fa3          	sb	a5,-1(s0)
   12390:	00090513          	mv	a0,s2
   12394:	00a00593          	li	a1,10
   12398:	00090493          	mv	s1,s2
   1239c:	6e8130ef          	jal	ra,25a84 <__divsi3>
   123a0:	00040c13          	mv	s8,s0
   123a4:	00050913          	mv	s2,a0
   123a8:	fff40413          	addi	s0,s0,-1
   123ac:	fc9d48e3          	blt	s10,s1,1237c <_vfprintf_r+0x1f40>
   123b0:	000b8793          	mv	a5,s7
   123b4:	03050913          	addi	s2,a0,48
   123b8:	000c0b93          	mv	s7,s8
   123bc:	00040c13          	mv	s8,s0
   123c0:	ffeb8713          	addi	a4,s7,-2
   123c4:	ff2c0fa3          	sb	s2,-1(s8)
   123c8:	000a0413          	mv	s0,s4
   123cc:	01c12483          	lw	s1,28(sp)
   123d0:	02412883          	lw	a7,36(sp)
   123d4:	00078a13          	mv	s4,a5
   123d8:	273776e3          	bgeu	a4,s3,12e44 <_vfprintf_r+0x2a08>
   123dc:	0e610613          	addi	a2,sp,230
   123e0:	00074783          	lbu	a5,0(a4)
   123e4:	00170713          	addi	a4,a4,1
   123e8:	00160613          	addi	a2,a2,1
   123ec:	fef60fa3          	sb	a5,-1(a2)
   123f0:	ff3718e3          	bne	a4,s3,123e0 <_vfprintf_r+0x1fa4>
   123f4:	0f510713          	addi	a4,sp,245
   123f8:	0e610793          	addi	a5,sp,230
   123fc:	41770733          	sub	a4,a4,s7
   12400:	00e78733          	add	a4,a5,a4
   12404:	0e410693          	addi	a3,sp,228
   12408:	40d707b3          	sub	a5,a4,a3
   1240c:	04f12023          	sw	a5,64(sp)
   12410:	04012683          	lw	a3,64(sp)
   12414:	02012783          	lw	a5,32(sp)
   12418:	00100713          	li	a4,1
   1241c:	00f68933          	add	s2,a3,a5
   12420:	7cf75e63          	bge	a4,a5,12bfc <_vfprintf_r+0x27c0>
   12424:	03012783          	lw	a5,48(sp)
   12428:	00f90933          	add	s2,s2,a5
   1242c:	04c12783          	lw	a5,76(sp)
   12430:	fff94813          	not	a6,s2
   12434:	41f85813          	srai	a6,a6,0x1f
   12438:	bff7f713          	andi	a4,a5,-1025
   1243c:	10076c13          	ori	s8,a4,256
   12440:	01097d33          	and	s10,s2,a6
   12444:	02012423          	sw	zero,40(sp)
   12448:	02012223          	sw	zero,36(sp)
   1244c:	00012e23          	sw	zero,28(sp)
   12450:	07012783          	lw	a5,112(sp)
   12454:	46078063          	beqz	a5,128b4 <_vfprintf_r+0x2478>
   12458:	02d00693          	li	a3,45
   1245c:	0cd10ba3          	sb	a3,215(sp)
   12460:	00000993          	li	s3,0
   12464:	001d0d13          	addi	s10,s10,1
   12468:	9f4fe06f          	j	1065c <_vfprintf_r+0x220>
   1246c:	000c0593          	mv	a1,s8
   12470:	00090513          	mv	a0,s2
   12474:	05112823          	sw	a7,80(sp)
   12478:	0df12023          	sw	t6,192(sp)
   1247c:	03f12423          	sw	t6,40(sp)
   12480:	0de12223          	sw	t5,196(sp)
   12484:	03e12223          	sw	t5,36(sp)
   12488:	0dd12423          	sw	t4,200(sp)
   1248c:	03d12023          	sw	t4,32(sp)
   12490:	0dc12623          	sw	t3,204(sp)
   12494:	01c12e23          	sw	t3,28(sp)
   12498:	04d12a23          	sw	a3,84(sp)
   1249c:	0a012823          	sw	zero,176(sp)
   124a0:	0a012a23          	sw	zero,180(sp)
   124a4:	0a012c23          	sw	zero,184(sp)
   124a8:	0a012e23          	sw	zero,188(sp)
   124ac:	4fd0f0ef          	jal	ra,221a8 <__eqtf2>
   124b0:	01c12e03          	lw	t3,28(sp)
   124b4:	02012e83          	lw	t4,32(sp)
   124b8:	02412f03          	lw	t5,36(sp)
   124bc:	02812f83          	lw	t6,40(sp)
   124c0:	05012883          	lw	a7,80(sp)
   124c4:	e0050a63          	beqz	a0,11ad8 <_vfprintf_r+0x169c>
   124c8:	05412683          	lw	a3,84(sp)
   124cc:	00100593          	li	a1,1
   124d0:	40d586b3          	sub	a3,a1,a3
   124d4:	0cd12e23          	sw	a3,220(sp)
   124d8:	e04ff06f          	j	11adc <_vfprintf_r+0x16a0>
   124dc:	00198693          	addi	a3,s3,1
   124e0:	00200613          	li	a2,2
   124e4:	d64ff06f          	j	11a48 <_vfprintf_r+0x160c>
   124e8:	00098693          	mv	a3,s3
   124ec:	00300613          	li	a2,3
   124f0:	d58ff06f          	j	11a48 <_vfprintf_r+0x160c>
   124f4:	0c010913          	addi	s2,sp,192
   124f8:	00090513          	mv	a0,s2
   124fc:	05112c23          	sw	a7,88(sp)
   12500:	0df12023          	sw	t6,192(sp)
   12504:	0de12223          	sw	t5,196(sp)
   12508:	0dd12423          	sw	t4,200(sp)
   1250c:	0dc12623          	sw	t3,204(sp)
   12510:	1ac130ef          	jal	ra,256bc <__trunctfdf2>
   12514:	0dc10613          	addi	a2,sp,220
   12518:	374060ef          	jal	ra,1888c <frexp>
   1251c:	00058613          	mv	a2,a1
   12520:	00050593          	mv	a1,a0
   12524:	00090513          	mv	a0,s2
   12528:	735120ef          	jal	ra,2545c <__extenddftf2>
   1252c:	0c012e83          	lw	t4,192(sp)
   12530:	00014717          	auipc	a4,0x14
   12534:	90070713          	addi	a4,a4,-1792 # 25e30 <zeroes.0+0x14>
   12538:	00072e03          	lw	t3,0(a4)
   1253c:	0bd12023          	sw	t4,160(sp)
   12540:	0c412e83          	lw	t4,196(sp)
   12544:	00472803          	lw	a6,4(a4)
   12548:	00872683          	lw	a3,8(a4)
   1254c:	0bd12223          	sw	t4,164(sp)
   12550:	0c812e83          	lw	t4,200(sp)
   12554:	00c72703          	lw	a4,12(a4)
   12558:	0a010793          	addi	a5,sp,160
   1255c:	0bd12423          	sw	t4,168(sp)
   12560:	0cc12e83          	lw	t4,204(sp)
   12564:	0b010c13          	addi	s8,sp,176
   12568:	09010613          	addi	a2,sp,144
   1256c:	00078593          	mv	a1,a5
   12570:	000c0513          	mv	a0,s8
   12574:	00f12e23          	sw	a5,28(sp)
   12578:	04c12a23          	sw	a2,84(sp)
   1257c:	0bd12623          	sw	t4,172(sp)
   12580:	09c12823          	sw	t3,144(sp)
   12584:	09012a23          	sw	a6,148(sp)
   12588:	08d12c23          	sw	a3,152(sp)
   1258c:	08e12e23          	sw	a4,156(sp)
   12590:	7950f0ef          	jal	ra,22524 <__multf3>
   12594:	0b012683          	lw	a3,176(sp)
   12598:	0b412803          	lw	a6,180(sp)
   1259c:	0b812e03          	lw	t3,184(sp)
   125a0:	0bc12e83          	lw	t4,188(sp)
   125a4:	000c0593          	mv	a1,s8
   125a8:	00090513          	mv	a0,s2
   125ac:	0cd12023          	sw	a3,192(sp)
   125b0:	04d12823          	sw	a3,80(sp)
   125b4:	0d012223          	sw	a6,196(sp)
   125b8:	03012423          	sw	a6,40(sp)
   125bc:	0dc12423          	sw	t3,200(sp)
   125c0:	03c12223          	sw	t3,36(sp)
   125c4:	0dd12623          	sw	t4,204(sp)
   125c8:	03d12023          	sw	t4,32(sp)
   125cc:	0a012823          	sw	zero,176(sp)
   125d0:	0a012a23          	sw	zero,180(sp)
   125d4:	0a012c23          	sw	zero,184(sp)
   125d8:	0a012e23          	sw	zero,188(sp)
   125dc:	3cd0f0ef          	jal	ra,221a8 <__eqtf2>
   125e0:	02012e83          	lw	t4,32(sp)
   125e4:	02412e03          	lw	t3,36(sp)
   125e8:	02812803          	lw	a6,40(sp)
   125ec:	05012683          	lw	a3,80(sp)
   125f0:	05812883          	lw	a7,88(sp)
   125f4:	00051e63          	bnez	a0,12610 <_vfprintf_r+0x21d4>
   125f8:	00100713          	li	a4,1
   125fc:	0ce12e23          	sw	a4,220(sp)
   12600:	06100713          	li	a4,97
   12604:	00013397          	auipc	t2,0x13
   12608:	5d038393          	addi	t2,t2,1488 # 25bd4 <__clzsi2+0x9c>
   1260c:	00e88663          	beq	a7,a4,12618 <_vfprintf_r+0x21dc>
   12610:	00013397          	auipc	t2,0x13
   12614:	5d838393          	addi	t2,t2,1496 # 25be8 <__clzsi2+0xb0>
   12618:	00014717          	auipc	a4,0x14
   1261c:	82870713          	addi	a4,a4,-2008 # 25e40 <zeroes.0+0x24>
   12620:	00072783          	lw	a5,0(a4)
   12624:	06912a23          	sw	s1,116(sp)
   12628:	07512e23          	sw	s5,124(sp)
   1262c:	06f12023          	sw	a5,96(sp)
   12630:	00472783          	lw	a5,4(a4)
   12634:	09412423          	sw	s4,136(sp)
   12638:	09912623          	sw	s9,140(sp)
   1263c:	06f12223          	sw	a5,100(sp)
   12640:	00872783          	lw	a5,8(a4)
   12644:	000c8a13          	mv	s4,s9
   12648:	fff98d13          	addi	s10,s3,-1
   1264c:	06f12423          	sw	a5,104(sp)
   12650:	00c72783          	lw	a5,12(a4)
   12654:	07112c23          	sw	a7,120(sp)
   12658:	09312023          	sw	s3,128(sp)
   1265c:	06f12623          	sw	a5,108(sp)
   12660:	08812223          	sw	s0,132(sp)
   12664:	04712823          	sw	t2,80(sp)
   12668:	00068a93          	mv	s5,a3
   1266c:	00080b93          	mv	s7,a6
   12670:	000e0c93          	mv	s9,t3
   12674:	000e8493          	mv	s1,t4
   12678:	0540006f          	j	126cc <_vfprintf_r+0x2290>
   1267c:	000c0593          	mv	a1,s8
   12680:	00090513          	mv	a0,s2
   12684:	02512423          	sw	t0,40(sp)
   12688:	03f12223          	sw	t6,36(sp)
   1268c:	02c12023          	sw	a2,32(sp)
   12690:	0cc12223          	sw	a2,196(sp)
   12694:	0df12423          	sw	t6,200(sp)
   12698:	0c512623          	sw	t0,204(sp)
   1269c:	0d312023          	sw	s3,192(sp)
   126a0:	0a012823          	sw	zero,176(sp)
   126a4:	0a012a23          	sw	zero,180(sp)
   126a8:	0a012c23          	sw	zero,184(sp)
   126ac:	0a012e23          	sw	zero,188(sp)
   126b0:	2f90f0ef          	jal	ra,221a8 <__eqtf2>
   126b4:	fffd0713          	addi	a4,s10,-1
   126b8:	000b8613          	mv	a2,s7
   126bc:	000c8f93          	mv	t6,s9
   126c0:	00048293          	mv	t0,s1
   126c4:	4e050663          	beqz	a0,12bb0 <_vfprintf_r+0x2774>
   126c8:	00070d13          	mv	s10,a4
   126cc:	06012783          	lw	a5,96(sp)
   126d0:	01c12603          	lw	a2,28(sp)
   126d4:	000c0593          	mv	a1,s8
   126d8:	0af12023          	sw	a5,160(sp)
   126dc:	06412783          	lw	a5,100(sp)
   126e0:	00090513          	mv	a0,s2
   126e4:	0b512823          	sw	s5,176(sp)
   126e8:	0af12223          	sw	a5,164(sp)
   126ec:	06812783          	lw	a5,104(sp)
   126f0:	0b712a23          	sw	s7,180(sp)
   126f4:	0b912c23          	sw	s9,184(sp)
   126f8:	0af12423          	sw	a5,168(sp)
   126fc:	06c12783          	lw	a5,108(sp)
   12700:	0a912e23          	sw	s1,188(sp)
   12704:	0af12623          	sw	a5,172(sp)
   12708:	61d0f0ef          	jal	ra,22524 <__multf3>
   1270c:	00090513          	mv	a0,s2
   12710:	2bd120ef          	jal	ra,251cc <__fixtfsi>
   12714:	00050593          	mv	a1,a0
   12718:	00050413          	mv	s0,a0
   1271c:	00090513          	mv	a0,s2
   12720:	0c012a83          	lw	s5,192(sp)
   12724:	0c412983          	lw	s3,196(sp)
   12728:	0c812483          	lw	s1,200(sp)
   1272c:	0cc12b83          	lw	s7,204(sp)
   12730:	399120ef          	jal	ra,252c8 <__floatsitf>
   12734:	0c012703          	lw	a4,192(sp)
   12738:	05412603          	lw	a2,84(sp)
   1273c:	01c12583          	lw	a1,28(sp)
   12740:	08e12823          	sw	a4,144(sp)
   12744:	0c412703          	lw	a4,196(sp)
   12748:	000c0513          	mv	a0,s8
   1274c:	0b512023          	sw	s5,160(sp)
   12750:	08e12a23          	sw	a4,148(sp)
   12754:	0c812703          	lw	a4,200(sp)
   12758:	0b312223          	sw	s3,164(sp)
   1275c:	0a912423          	sw	s1,168(sp)
   12760:	08e12c23          	sw	a4,152(sp)
   12764:	0cc12703          	lw	a4,204(sp)
   12768:	0b712623          	sw	s7,172(sp)
   1276c:	08e12e23          	sw	a4,156(sp)
   12770:	2e0110ef          	jal	ra,23a50 <__subtf3>
   12774:	05012783          	lw	a5,80(sp)
   12778:	0b012983          	lw	s3,176(sp)
   1277c:	0b412603          	lw	a2,180(sp)
   12780:	00878733          	add	a4,a5,s0
   12784:	00074703          	lbu	a4,0(a4)
   12788:	0b812f83          	lw	t6,184(sp)
   1278c:	0bc12283          	lw	t0,188(sp)
   12790:	05412c23          	sw	s4,88(sp)
   12794:	00ea0023          	sb	a4,0(s4)
   12798:	fff00793          	li	a5,-1
   1279c:	001a0a13          	addi	s4,s4,1
   127a0:	00098a93          	mv	s5,s3
   127a4:	00060b93          	mv	s7,a2
   127a8:	000f8c93          	mv	s9,t6
   127ac:	00028493          	mv	s1,t0
   127b0:	ecfd16e3          	bne	s10,a5,1267c <_vfprintf_r+0x2240>
   127b4:	000a0b93          	mv	s7,s4
   127b8:	00812e23          	sw	s0,28(sp)
   127bc:	00098f13          	mv	t5,s3
   127c0:	07412483          	lw	s1,116(sp)
   127c4:	07812883          	lw	a7,120(sp)
   127c8:	07c12a83          	lw	s5,124(sp)
   127cc:	08412403          	lw	s0,132(sp)
   127d0:	05012383          	lw	t2,80(sp)
   127d4:	08812a03          	lw	s4,136(sp)
   127d8:	08c12c83          	lw	s9,140(sp)
   127dc:	08012983          	lw	s3,128(sp)
   127e0:	fff00693          	li	a3,-1
   127e4:	00013597          	auipc	a1,0x13
   127e8:	66c58593          	addi	a1,a1,1644 # 25e50 <zeroes.0+0x34>
   127ec:	0005a803          	lw	a6,0(a1)
   127f0:	0045ae03          	lw	t3,4(a1)
   127f4:	0085ae83          	lw	t4,8(a1)
   127f8:	00c5a783          	lw	a5,12(a1)
   127fc:	00090513          	mv	a0,s2
   12800:	000c0593          	mv	a1,s8
   12804:	02712223          	sw	t2,36(sp)
   12808:	03112023          	sw	a7,32(sp)
   1280c:	06d12c23          	sw	a3,120(sp)
   12810:	0de12023          	sw	t5,192(sp)
   12814:	07e12a23          	sw	t5,116(sp)
   12818:	0cc12223          	sw	a2,196(sp)
   1281c:	06c12623          	sw	a2,108(sp)
   12820:	0df12423          	sw	t6,200(sp)
   12824:	07f12423          	sw	t6,104(sp)
   12828:	0c512623          	sw	t0,204(sp)
   1282c:	06512223          	sw	t0,100(sp)
   12830:	0b012823          	sw	a6,176(sp)
   12834:	07012023          	sw	a6,96(sp)
   12838:	0bc12a23          	sw	t3,180(sp)
   1283c:	05c12a23          	sw	t3,84(sp)
   12840:	0bd12c23          	sw	t4,184(sp)
   12844:	05d12823          	sw	t4,80(sp)
   12848:	0af12e23          	sw	a5,188(sp)
   1284c:	02f12423          	sw	a5,40(sp)
   12850:	2290f0ef          	jal	ra,22278 <__getf2>
   12854:	02012883          	lw	a7,32(sp)
   12858:	02412383          	lw	t2,36(sp)
   1285c:	2ea04c63          	bgtz	a0,12b54 <_vfprintf_r+0x2718>
   12860:	000c0593          	mv	a1,s8
   12864:	00090513          	mv	a0,s2
   12868:	1410f0ef          	jal	ra,221a8 <__eqtf2>
   1286c:	02012883          	lw	a7,32(sp)
   12870:	02412383          	lw	t2,36(sp)
   12874:	07812683          	lw	a3,120(sp)
   12878:	00051863          	bnez	a0,12888 <_vfprintf_r+0x244c>
   1287c:	01c12783          	lw	a5,28(sp)
   12880:	0017f613          	andi	a2,a5,1
   12884:	2c061863          	bnez	a2,12b54 <_vfprintf_r+0x2718>
   12888:	00168c13          	addi	s8,a3,1
   1288c:	018b8c33          	add	s8,s7,s8
   12890:	03000613          	li	a2,48
   12894:	3006c463          	bltz	a3,12b9c <_vfprintf_r+0x2760>
   12898:	001b8b93          	addi	s7,s7,1
   1289c:	fecb8fa3          	sb	a2,-1(s7)
   128a0:	ff7c1ce3          	bne	s8,s7,12898 <_vfprintf_r+0x245c>
   128a4:	419c07b3          	sub	a5,s8,s9
   128a8:	02f12023          	sw	a5,32(sp)
   128ac:	fdf8fb93          	andi	s7,a7,-33
   128b0:	a94ff06f          	j	11b44 <_vfprintf_r+0x1708>
   128b4:	0d714683          	lbu	a3,215(sp)
   128b8:	00000993          	li	s3,0
   128bc:	00068463          	beqz	a3,128c4 <_vfprintf_r+0x2488>
   128c0:	840fe06f          	j	10900 <_vfprintf_r+0x4c4>
   128c4:	d99fd06f          	j	1065c <_vfprintf_r+0x220>
   128c8:	02012783          	lw	a5,32(sp)
   128cc:	18f74e63          	blt	a4,a5,12a68 <_vfprintf_r+0x262c>
   128d0:	04c12783          	lw	a5,76(sp)
   128d4:	00070913          	mv	s2,a4
   128d8:	0017f693          	andi	a3,a5,1
   128dc:	00068663          	beqz	a3,128e8 <_vfprintf_r+0x24ac>
   128e0:	03012783          	lw	a5,48(sp)
   128e4:	00f70933          	add	s2,a4,a5
   128e8:	04c12783          	lw	a5,76(sp)
   128ec:	4007f693          	andi	a3,a5,1024
   128f0:	00068463          	beqz	a3,128f8 <_vfprintf_r+0x24bc>
   128f4:	42e04463          	bgtz	a4,12d1c <_vfprintf_r+0x28e0>
   128f8:	fff94813          	not	a6,s2
   128fc:	05c12c03          	lw	s8,92(sp)
   12900:	41f85813          	srai	a6,a6,0x1f
   12904:	01097d33          	and	s10,s2,a6
   12908:	06700893          	li	a7,103
   1290c:	02012423          	sw	zero,40(sp)
   12910:	02012223          	sw	zero,36(sp)
   12914:	b3dff06f          	j	12450 <_vfprintf_r+0x2014>
   12918:	0f410613          	addi	a2,sp,244
   1291c:	00048593          	mv	a1,s1
   12920:	000a0513          	mv	a0,s4
   12924:	76d080ef          	jal	ra,1b890 <__sprint_r>
   12928:	00050463          	beqz	a0,12930 <_vfprintf_r+0x24f4>
   1292c:	9a5fe06f          	j	112d0 <_vfprintf_r+0xe94>
   12930:	000c4603          	lbu	a2,0(s8)
   12934:	0fc12683          	lw	a3,252(sp)
   12938:	000d8713          	mv	a4,s11
   1293c:	00700e13          	li	t3,7
   12940:	00cc8cb3          	add	s9,s9,a2
   12944:	f00ff06f          	j	12044 <_vfprintf_r+0x1c08>
   12948:	00900713          	li	a4,9
   1294c:	b1276a63          	bltu	a4,s2,11c60 <_vfprintf_r+0x1824>
   12950:	b58ff06f          	j	11ca8 <_vfprintf_r+0x186c>
   12954:	02d00793          	li	a5,45
   12958:	0cf10ba3          	sb	a5,215(sp)
   1295c:	02d00693          	li	a3,45
   12960:	c88ff06f          	j	11de8 <_vfprintf_r+0x19ac>
   12964:	00c12583          	lw	a1,12(sp)
   12968:	0f410613          	addi	a2,sp,244
   1296c:	000a0513          	mv	a0,s4
   12970:	721080ef          	jal	ra,1b890 <__sprint_r>
   12974:	00050463          	beqz	a0,1297c <_vfprintf_r+0x2540>
   12978:	959fe06f          	j	112d0 <_vfprintf_r+0xe94>
   1297c:	0dc12903          	lw	s2,220(sp)
   12980:	0fc12683          	lw	a3,252(sp)
   12984:	000d8413          	mv	s0,s11
   12988:	c15fe06f          	j	1159c <_vfprintf_r+0x1160>
   1298c:	0d714683          	lbu	a3,215(sp)
   12990:	01712c23          	sw	s7,24(sp)
   12994:	02012423          	sw	zero,40(sp)
   12998:	02012223          	sw	zero,36(sp)
   1299c:	00012e23          	sw	zero,28(sp)
   129a0:	00098d13          	mv	s10,s3
   129a4:	00098913          	mv	s2,s3
   129a8:	00000993          	li	s3,0
   129ac:	00068463          	beqz	a3,129b4 <_vfprintf_r+0x2578>
   129b0:	f51fd06f          	j	10900 <_vfprintf_r+0x4c4>
   129b4:	ca9fd06f          	j	1065c <_vfprintf_r+0x220>
   129b8:	00c12583          	lw	a1,12(sp)
   129bc:	0f410613          	addi	a2,sp,244
   129c0:	000a0513          	mv	a0,s4
   129c4:	6cd080ef          	jal	ra,1b890 <__sprint_r>
   129c8:	00050463          	beqz	a0,129d0 <_vfprintf_r+0x2594>
   129cc:	905fe06f          	j	112d0 <_vfprintf_r+0xe94>
   129d0:	0dc12903          	lw	s2,220(sp)
   129d4:	02012783          	lw	a5,32(sp)
   129d8:	0fc12683          	lw	a3,252(sp)
   129dc:	000d8413          	mv	s0,s11
   129e0:	41278933          	sub	s2,a5,s2
   129e4:	c01fe06f          	j	115e4 <_vfprintf_r+0x11a8>
   129e8:	ff000513          	li	a0,-16
   129ec:	40b00933          	neg	s2,a1
   129f0:	00013b97          	auipc	s7,0x13
   129f4:	42cb8b93          	addi	s7,s7,1068 # 25e1c <zeroes.0>
   129f8:	01000993          	li	s3,16
   129fc:	00700893          	li	a7,7
   12a00:	00a5c863          	blt	a1,a0,12a10 <_vfprintf_r+0x25d4>
   12a04:	0d80006f          	j	12adc <_vfprintf_r+0x26a0>
   12a08:	ff090913          	addi	s2,s2,-16
   12a0c:	0d29d863          	bge	s3,s2,12adc <_vfprintf_r+0x26a0>
   12a10:	01068693          	addi	a3,a3,16
   12a14:	00160613          	addi	a2,a2,1
   12a18:	01742023          	sw	s7,0(s0)
   12a1c:	01342223          	sw	s3,4(s0)
   12a20:	0ed12e23          	sw	a3,252(sp)
   12a24:	0ec12c23          	sw	a2,248(sp)
   12a28:	00840413          	addi	s0,s0,8
   12a2c:	fcc8dee3          	bge	a7,a2,12a08 <_vfprintf_r+0x25cc>
   12a30:	00c12583          	lw	a1,12(sp)
   12a34:	0f410613          	addi	a2,sp,244
   12a38:	000a0513          	mv	a0,s4
   12a3c:	655080ef          	jal	ra,1b890 <__sprint_r>
   12a40:	00050463          	beqz	a0,12a48 <_vfprintf_r+0x260c>
   12a44:	88dfe06f          	j	112d0 <_vfprintf_r+0xe94>
   12a48:	0fc12683          	lw	a3,252(sp)
   12a4c:	0f812603          	lw	a2,248(sp)
   12a50:	000d8413          	mv	s0,s11
   12a54:	00700893          	li	a7,7
   12a58:	fb1ff06f          	j	12a08 <_vfprintf_r+0x25cc>
   12a5c:	fff00793          	li	a5,-1
   12a60:	00f12823          	sw	a5,16(sp)
   12a64:	d41fd06f          	j	107a4 <_vfprintf_r+0x368>
   12a68:	02012783          	lw	a5,32(sp)
   12a6c:	03012703          	lw	a4,48(sp)
   12a70:	06700893          	li	a7,103
   12a74:	00e78933          	add	s2,a5,a4
   12a78:	01c12783          	lw	a5,28(sp)
   12a7c:	32f05663          	blez	a5,12da8 <_vfprintf_r+0x296c>
   12a80:	04c12783          	lw	a5,76(sp)
   12a84:	4007f713          	andi	a4,a5,1024
   12a88:	28071c63          	bnez	a4,12d20 <_vfprintf_r+0x28e4>
   12a8c:	fff94813          	not	a6,s2
   12a90:	41f85813          	srai	a6,a6,0x1f
   12a94:	05c12c03          	lw	s8,92(sp)
   12a98:	01097d33          	and	s10,s2,a6
   12a9c:	e71ff06f          	j	1290c <_vfprintf_r+0x24d0>
   12aa0:	04c12783          	lw	a5,76(sp)
   12aa4:	0017f713          	andi	a4,a5,1
   12aa8:	01c12783          	lw	a5,28(sp)
   12aac:	01376733          	or	a4,a4,s3
   12ab0:	32f05a63          	blez	a5,12de4 <_vfprintf_r+0x29a8>
   12ab4:	30071863          	bnez	a4,12dc4 <_vfprintf_r+0x2988>
   12ab8:	01c12903          	lw	s2,28(sp)
   12abc:	06600893          	li	a7,102
   12ac0:	fc1ff06f          	j	12a80 <_vfprintf_r+0x2644>
   12ac4:	000c0613          	mv	a2,s8
   12ac8:	ad8fe06f          	j	10da0 <_vfprintf_r+0x964>
   12acc:	00dc8d33          	add	s10,s9,a3
   12ad0:	04700b93          	li	s7,71
   12ad4:	0b010c13          	addi	s8,sp,176
   12ad8:	808ff06f          	j	11ae0 <_vfprintf_r+0x16a4>
   12adc:	012686b3          	add	a3,a3,s2
   12ae0:	00160613          	addi	a2,a2,1
   12ae4:	01742023          	sw	s7,0(s0)
   12ae8:	01242223          	sw	s2,4(s0)
   12aec:	0ed12e23          	sw	a3,252(sp)
   12af0:	0ec12c23          	sw	a2,248(sp)
   12af4:	00700593          	li	a1,7
   12af8:	a6c5d063          	bge	a1,a2,11d58 <_vfprintf_r+0x191c>
   12afc:	00c12583          	lw	a1,12(sp)
   12b00:	0f410613          	addi	a2,sp,244
   12b04:	000a0513          	mv	a0,s4
   12b08:	589080ef          	jal	ra,1b890 <__sprint_r>
   12b0c:	00050463          	beqz	a0,12b14 <_vfprintf_r+0x26d8>
   12b10:	fc0fe06f          	j	112d0 <_vfprintf_r+0xe94>
   12b14:	0fc12683          	lw	a3,252(sp)
   12b18:	0f812603          	lw	a2,248(sp)
   12b1c:	000d8413          	mv	s0,s11
   12b20:	b4cff06f          	j	11e6c <_vfprintf_r+0x1a30>
   12b24:	0e610713          	addi	a4,sp,230
   12b28:	00061863          	bnez	a2,12b38 <_vfprintf_r+0x26fc>
   12b2c:	03000713          	li	a4,48
   12b30:	0ee10323          	sb	a4,230(sp)
   12b34:	0e710713          	addi	a4,sp,231
   12b38:	1c010793          	addi	a5,sp,448
   12b3c:	40f706b3          	sub	a3,a4,a5
   12b40:	03090913          	addi	s2,s2,48
   12b44:	0dd68793          	addi	a5,a3,221
   12b48:	01270023          	sb	s2,0(a4)
   12b4c:	04f12023          	sw	a5,64(sp)
   12b50:	8c1ff06f          	j	12410 <_vfprintf_r+0x1fd4>
   12b54:	05812783          	lw	a5,88(sp)
   12b58:	00f3c583          	lbu	a1,15(t2)
   12b5c:	000b8693          	mv	a3,s7
   12b60:	0ef12623          	sw	a5,236(sp)
   12b64:	fffbc603          	lbu	a2,-1(s7)
   12b68:	02b61063          	bne	a2,a1,12b88 <_vfprintf_r+0x274c>
   12b6c:	03000513          	li	a0,48
   12b70:	fea68fa3          	sb	a0,-1(a3)
   12b74:	0ec12683          	lw	a3,236(sp)
   12b78:	fff68793          	addi	a5,a3,-1
   12b7c:	0ef12623          	sw	a5,236(sp)
   12b80:	fff6c603          	lbu	a2,-1(a3)
   12b84:	fec586e3          	beq	a1,a2,12b70 <_vfprintf_r+0x2734>
   12b88:	00160593          	addi	a1,a2,1
   12b8c:	03900513          	li	a0,57
   12b90:	0ff5f593          	zext.b	a1,a1
   12b94:	00a60863          	beq	a2,a0,12ba4 <_vfprintf_r+0x2768>
   12b98:	feb68fa3          	sb	a1,-1(a3)
   12b9c:	000b8c13          	mv	s8,s7
   12ba0:	d05ff06f          	j	128a4 <_vfprintf_r+0x2468>
   12ba4:	00a3c583          	lbu	a1,10(t2)
   12ba8:	feb68fa3          	sb	a1,-1(a3)
   12bac:	ff1ff06f          	j	12b9c <_vfprintf_r+0x2760>
   12bb0:	000a0b93          	mv	s7,s4
   12bb4:	00812e23          	sw	s0,28(sp)
   12bb8:	00098f13          	mv	t5,s3
   12bbc:	07412483          	lw	s1,116(sp)
   12bc0:	07812883          	lw	a7,120(sp)
   12bc4:	07c12a83          	lw	s5,124(sp)
   12bc8:	08412403          	lw	s0,132(sp)
   12bcc:	05012383          	lw	t2,80(sp)
   12bd0:	08812a03          	lw	s4,136(sp)
   12bd4:	08c12c83          	lw	s9,140(sp)
   12bd8:	08012983          	lw	s3,128(sp)
   12bdc:	000d0693          	mv	a3,s10
   12be0:	c05ff06f          	j	127e4 <_vfprintf_r+0x23a8>
   12be4:	00098463          	beqz	s3,12bec <_vfprintf_r+0x27b0>
   12be8:	e6dfd06f          	j	10a54 <_vfprintf_r+0x618>
   12bec:	00100993          	li	s3,1
   12bf0:	e65fd06f          	j	10a54 <_vfprintf_r+0x618>
   12bf4:	00600993          	li	s3,6
   12bf8:	e5dfd06f          	j	10a54 <_vfprintf_r+0x618>
   12bfc:	04c12783          	lw	a5,76(sp)
   12c00:	0017f713          	andi	a4,a5,1
   12c04:	820704e3          	beqz	a4,1242c <_vfprintf_r+0x1ff0>
   12c08:	81dff06f          	j	12424 <_vfprintf_r+0x1fe8>
   12c0c:	0c010913          	addi	s2,sp,192
   12c10:	00090513          	mv	a0,s2
   12c14:	05112c23          	sw	a7,88(sp)
   12c18:	0df12023          	sw	t6,192(sp)
   12c1c:	0de12223          	sw	t5,196(sp)
   12c20:	0dd12423          	sw	t4,200(sp)
   12c24:	0dc12623          	sw	t3,204(sp)
   12c28:	295120ef          	jal	ra,256bc <__trunctfdf2>
   12c2c:	0dc10613          	addi	a2,sp,220
   12c30:	45d050ef          	jal	ra,1888c <frexp>
   12c34:	00058613          	mv	a2,a1
   12c38:	00050593          	mv	a1,a0
   12c3c:	00090513          	mv	a0,s2
   12c40:	01d120ef          	jal	ra,2545c <__extenddftf2>
   12c44:	0c012e83          	lw	t4,192(sp)
   12c48:	00013717          	auipc	a4,0x13
   12c4c:	1e870713          	addi	a4,a4,488 # 25e30 <zeroes.0+0x14>
   12c50:	00072e03          	lw	t3,0(a4)
   12c54:	0bd12023          	sw	t4,160(sp)
   12c58:	0c412e83          	lw	t4,196(sp)
   12c5c:	00472803          	lw	a6,4(a4)
   12c60:	00872683          	lw	a3,8(a4)
   12c64:	0bd12223          	sw	t4,164(sp)
   12c68:	0c812e83          	lw	t4,200(sp)
   12c6c:	00c72703          	lw	a4,12(a4)
   12c70:	0a010793          	addi	a5,sp,160
   12c74:	0bd12423          	sw	t4,168(sp)
   12c78:	0cc12e83          	lw	t4,204(sp)
   12c7c:	0b010c13          	addi	s8,sp,176
   12c80:	09010613          	addi	a2,sp,144
   12c84:	00078593          	mv	a1,a5
   12c88:	000c0513          	mv	a0,s8
   12c8c:	00f12e23          	sw	a5,28(sp)
   12c90:	04c12a23          	sw	a2,84(sp)
   12c94:	0bd12623          	sw	t4,172(sp)
   12c98:	09c12823          	sw	t3,144(sp)
   12c9c:	09012a23          	sw	a6,148(sp)
   12ca0:	08d12c23          	sw	a3,152(sp)
   12ca4:	08e12e23          	sw	a4,156(sp)
   12ca8:	07d0f0ef          	jal	ra,22524 <__multf3>
   12cac:	0b012683          	lw	a3,176(sp)
   12cb0:	0b412803          	lw	a6,180(sp)
   12cb4:	0b812e03          	lw	t3,184(sp)
   12cb8:	0bc12e83          	lw	t4,188(sp)
   12cbc:	000c0593          	mv	a1,s8
   12cc0:	00090513          	mv	a0,s2
   12cc4:	0cd12023          	sw	a3,192(sp)
   12cc8:	04d12823          	sw	a3,80(sp)
   12ccc:	0d012223          	sw	a6,196(sp)
   12cd0:	03012423          	sw	a6,40(sp)
   12cd4:	0dc12423          	sw	t3,200(sp)
   12cd8:	03c12223          	sw	t3,36(sp)
   12cdc:	0dd12623          	sw	t4,204(sp)
   12ce0:	03d12023          	sw	t4,32(sp)
   12ce4:	0a012823          	sw	zero,176(sp)
   12ce8:	0a012a23          	sw	zero,180(sp)
   12cec:	0a012c23          	sw	zero,184(sp)
   12cf0:	0a012e23          	sw	zero,188(sp)
   12cf4:	4b40f0ef          	jal	ra,221a8 <__eqtf2>
   12cf8:	02012e83          	lw	t4,32(sp)
   12cfc:	02412e03          	lw	t3,36(sp)
   12d00:	02812803          	lw	a6,40(sp)
   12d04:	05012683          	lw	a3,80(sp)
   12d08:	05812883          	lw	a7,88(sp)
   12d0c:	00013397          	auipc	t2,0x13
   12d10:	ec838393          	addi	t2,t2,-312 # 25bd4 <__clzsi2+0x9c>
   12d14:	900512e3          	bnez	a0,12618 <_vfprintf_r+0x21dc>
   12d18:	8e1ff06f          	j	125f8 <_vfprintf_r+0x21bc>
   12d1c:	06700893          	li	a7,103
   12d20:	03c12603          	lw	a2,60(sp)
   12d24:	0ff00693          	li	a3,255
   12d28:	00064703          	lbu	a4,0(a2)
   12d2c:	12d70c63          	beq	a4,a3,12e64 <_vfprintf_r+0x2a28>
   12d30:	01c12783          	lw	a5,28(sp)
   12d34:	00000513          	li	a0,0
   12d38:	00000593          	li	a1,0
   12d3c:	00f75e63          	bge	a4,a5,12d58 <_vfprintf_r+0x291c>
   12d40:	40e787b3          	sub	a5,a5,a4
   12d44:	00164703          	lbu	a4,1(a2)
   12d48:	04070a63          	beqz	a4,12d9c <_vfprintf_r+0x2960>
   12d4c:	00158593          	addi	a1,a1,1
   12d50:	00160613          	addi	a2,a2,1
   12d54:	fed714e3          	bne	a4,a3,12d3c <_vfprintf_r+0x2900>
   12d58:	02c12e23          	sw	a2,60(sp)
   12d5c:	00f12e23          	sw	a5,28(sp)
   12d60:	02b12223          	sw	a1,36(sp)
   12d64:	02a12423          	sw	a0,40(sp)
   12d68:	02812783          	lw	a5,40(sp)
   12d6c:	02412703          	lw	a4,36(sp)
   12d70:	04812583          	lw	a1,72(sp)
   12d74:	05112623          	sw	a7,76(sp)
   12d78:	00e78533          	add	a0,a5,a4
   12d7c:	4e5120ef          	jal	ra,25a60 <__mulsi3>
   12d80:	01250933          	add	s2,a0,s2
   12d84:	fff94813          	not	a6,s2
   12d88:	41f85813          	srai	a6,a6,0x1f
   12d8c:	05c12c03          	lw	s8,92(sp)
   12d90:	04c12883          	lw	a7,76(sp)
   12d94:	01097d33          	and	s10,s2,a6
   12d98:	eb8ff06f          	j	12450 <_vfprintf_r+0x2014>
   12d9c:	00064703          	lbu	a4,0(a2)
   12da0:	00150513          	addi	a0,a0,1
   12da4:	fb1ff06f          	j	12d54 <_vfprintf_r+0x2918>
   12da8:	40f90e33          	sub	t3,s2,a5
   12dac:	001e0913          	addi	s2,t3,1
   12db0:	fff94813          	not	a6,s2
   12db4:	41f85813          	srai	a6,a6,0x1f
   12db8:	05c12c03          	lw	s8,92(sp)
   12dbc:	01097d33          	and	s10,s2,a6
   12dc0:	b4dff06f          	j	1290c <_vfprintf_r+0x24d0>
   12dc4:	03012703          	lw	a4,48(sp)
   12dc8:	06600893          	li	a7,102
   12dcc:	00e78e33          	add	t3,a5,a4
   12dd0:	013e0933          	add	s2,t3,s3
   12dd4:	cadff06f          	j	12a80 <_vfprintf_r+0x2644>
   12dd8:	07000693          	li	a3,112
   12ddc:	00100613          	li	a2,1
   12de0:	d5cff06f          	j	1233c <_vfprintf_r+0x1f00>
   12de4:	00071c63          	bnez	a4,12dfc <_vfprintf_r+0x29c0>
   12de8:	05c12c03          	lw	s8,92(sp)
   12dec:	00100d13          	li	s10,1
   12df0:	06600893          	li	a7,102
   12df4:	00100913          	li	s2,1
   12df8:	b15ff06f          	j	1290c <_vfprintf_r+0x24d0>
   12dfc:	03012783          	lw	a5,48(sp)
   12e00:	05c12c03          	lw	s8,92(sp)
   12e04:	06600893          	li	a7,102
   12e08:	00178e13          	addi	t3,a5,1
   12e0c:	013e0933          	add	s2,t3,s3
   12e10:	fff94813          	not	a6,s2
   12e14:	41f85813          	srai	a6,a6,0x1f
   12e18:	01097d33          	and	s10,s2,a6
   12e1c:	af1ff06f          	j	1290c <_vfprintf_r+0x24d0>
   12e20:	01812783          	lw	a5,24(sp)
   12e24:	0007a983          	lw	s3,0(a5)
   12e28:	00478793          	addi	a5,a5,4
   12e2c:	0009d463          	bgez	s3,12e34 <_vfprintf_r+0x29f8>
   12e30:	fff00993          	li	s3,-1
   12e34:	0014c883          	lbu	a7,1(s1)
   12e38:	00f12c23          	sw	a5,24(sp)
   12e3c:	00070493          	mv	s1,a4
   12e40:	f94fd06f          	j	105d4 <_vfprintf_r+0x198>
   12e44:	00200793          	li	a5,2
   12e48:	04f12023          	sw	a5,64(sp)
   12e4c:	dc4ff06f          	j	12410 <_vfprintf_r+0x1fd4>
   12e50:	00c12703          	lw	a4,12(sp)
   12e54:	00c75783          	lhu	a5,12(a4)
   12e58:	0407e793          	ori	a5,a5,64
   12e5c:	00f71623          	sh	a5,12(a4)
   12e60:	931fd06f          	j	10790 <_vfprintf_r+0x354>
   12e64:	02012423          	sw	zero,40(sp)
   12e68:	02012223          	sw	zero,36(sp)
   12e6c:	efdff06f          	j	12d68 <_vfprintf_r+0x292c>

00012e70 <vfprintf>:
   12e70:	00060693          	mv	a3,a2
   12e74:	00058613          	mv	a2,a1
   12e78:	00050593          	mv	a1,a0
   12e7c:	1c01a503          	lw	a0,448(gp) # 27a80 <_impure_ptr>
   12e80:	dbcfd06f          	j	1043c <_vfprintf_r>

00012e84 <__sbprintf>:
   12e84:	00c59783          	lh	a5,12(a1)
   12e88:	00e5d703          	lhu	a4,14(a1)
   12e8c:	0645a303          	lw	t1,100(a1)
   12e90:	ffd7f793          	andi	a5,a5,-3
   12e94:	01079793          	slli	a5,a5,0x10
   12e98:	01c5a883          	lw	a7,28(a1)
   12e9c:	0245a803          	lw	a6,36(a1)
   12ea0:	01071713          	slli	a4,a4,0x10
   12ea4:	0107d793          	srli	a5,a5,0x10
   12ea8:	b8010113          	addi	sp,sp,-1152
   12eac:	00e7e7b3          	or	a5,a5,a4
   12eb0:	46812c23          	sw	s0,1144(sp)
   12eb4:	40000713          	li	a4,1024
   12eb8:	00f12a23          	sw	a5,20(sp)
   12ebc:	00058413          	mv	s0,a1
   12ec0:	07010793          	addi	a5,sp,112
   12ec4:	00810593          	addi	a1,sp,8
   12ec8:	46912a23          	sw	s1,1140(sp)
   12ecc:	47212823          	sw	s2,1136(sp)
   12ed0:	46112e23          	sw	ra,1148(sp)
   12ed4:	00050913          	mv	s2,a0
   12ed8:	06612623          	sw	t1,108(sp)
   12edc:	03112223          	sw	a7,36(sp)
   12ee0:	03012623          	sw	a6,44(sp)
   12ee4:	00f12423          	sw	a5,8(sp)
   12ee8:	00f12c23          	sw	a5,24(sp)
   12eec:	00e12823          	sw	a4,16(sp)
   12ef0:	00e12e23          	sw	a4,28(sp)
   12ef4:	02012023          	sw	zero,32(sp)
   12ef8:	d44fd0ef          	jal	ra,1043c <_vfprintf_r>
   12efc:	00050493          	mv	s1,a0
   12f00:	02055c63          	bgez	a0,12f38 <__sbprintf+0xb4>
   12f04:	01415783          	lhu	a5,20(sp)
   12f08:	0407f793          	andi	a5,a5,64
   12f0c:	00078863          	beqz	a5,12f1c <__sbprintf+0x98>
   12f10:	00c45783          	lhu	a5,12(s0)
   12f14:	0407e793          	ori	a5,a5,64
   12f18:	00f41623          	sh	a5,12(s0)
   12f1c:	47c12083          	lw	ra,1148(sp)
   12f20:	47812403          	lw	s0,1144(sp)
   12f24:	47012903          	lw	s2,1136(sp)
   12f28:	00048513          	mv	a0,s1
   12f2c:	47412483          	lw	s1,1140(sp)
   12f30:	48010113          	addi	sp,sp,1152
   12f34:	00008067          	ret
   12f38:	00810593          	addi	a1,sp,8
   12f3c:	00090513          	mv	a0,s2
   12f40:	4d0000ef          	jal	ra,13410 <_fflush_r>
   12f44:	fc0500e3          	beqz	a0,12f04 <__sbprintf+0x80>
   12f48:	fff00493          	li	s1,-1
   12f4c:	fb9ff06f          	j	12f04 <__sbprintf+0x80>

00012f50 <__swsetup_r>:
   12f50:	ff010113          	addi	sp,sp,-16
   12f54:	00812423          	sw	s0,8(sp)
   12f58:	00912223          	sw	s1,4(sp)
   12f5c:	00112623          	sw	ra,12(sp)
   12f60:	1c01a783          	lw	a5,448(gp) # 27a80 <_impure_ptr>
   12f64:	00050493          	mv	s1,a0
   12f68:	00058413          	mv	s0,a1
   12f6c:	00078663          	beqz	a5,12f78 <__swsetup_r+0x28>
   12f70:	0387a703          	lw	a4,56(a5)
   12f74:	08070063          	beqz	a4,12ff4 <__swsetup_r+0xa4>
   12f78:	00c41783          	lh	a5,12(s0)
   12f7c:	0087f713          	andi	a4,a5,8
   12f80:	08070463          	beqz	a4,13008 <__swsetup_r+0xb8>
   12f84:	01042703          	lw	a4,16(s0)
   12f88:	0a070063          	beqz	a4,13028 <__swsetup_r+0xd8>
   12f8c:	0017f693          	andi	a3,a5,1
   12f90:	02068863          	beqz	a3,12fc0 <__swsetup_r+0x70>
   12f94:	01442683          	lw	a3,20(s0)
   12f98:	00042423          	sw	zero,8(s0)
   12f9c:	00000513          	li	a0,0
   12fa0:	40d006b3          	neg	a3,a3
   12fa4:	00d42c23          	sw	a3,24(s0)
   12fa8:	02070a63          	beqz	a4,12fdc <__swsetup_r+0x8c>
   12fac:	00c12083          	lw	ra,12(sp)
   12fb0:	00812403          	lw	s0,8(sp)
   12fb4:	00412483          	lw	s1,4(sp)
   12fb8:	01010113          	addi	sp,sp,16
   12fbc:	00008067          	ret
   12fc0:	0027f693          	andi	a3,a5,2
   12fc4:	00000613          	li	a2,0
   12fc8:	00069463          	bnez	a3,12fd0 <__swsetup_r+0x80>
   12fcc:	01442603          	lw	a2,20(s0)
   12fd0:	00c42423          	sw	a2,8(s0)
   12fd4:	00000513          	li	a0,0
   12fd8:	fc071ae3          	bnez	a4,12fac <__swsetup_r+0x5c>
   12fdc:	0807f713          	andi	a4,a5,128
   12fe0:	fc0706e3          	beqz	a4,12fac <__swsetup_r+0x5c>
   12fe4:	0407e793          	ori	a5,a5,64
   12fe8:	00f41623          	sh	a5,12(s0)
   12fec:	fff00513          	li	a0,-1
   12ff0:	fbdff06f          	j	12fac <__swsetup_r+0x5c>
   12ff4:	00078513          	mv	a0,a5
   12ff8:	049000ef          	jal	ra,13840 <__sinit>
   12ffc:	00c41783          	lh	a5,12(s0)
   13000:	0087f713          	andi	a4,a5,8
   13004:	f80710e3          	bnez	a4,12f84 <__swsetup_r+0x34>
   13008:	0107f713          	andi	a4,a5,16
   1300c:	06070a63          	beqz	a4,13080 <__swsetup_r+0x130>
   13010:	0047f713          	andi	a4,a5,4
   13014:	02071c63          	bnez	a4,1304c <__swsetup_r+0xfc>
   13018:	01042703          	lw	a4,16(s0)
   1301c:	0087e793          	ori	a5,a5,8
   13020:	00f41623          	sh	a5,12(s0)
   13024:	f60714e3          	bnez	a4,12f8c <__swsetup_r+0x3c>
   13028:	2807f693          	andi	a3,a5,640
   1302c:	20000613          	li	a2,512
   13030:	f4c68ee3          	beq	a3,a2,12f8c <__swsetup_r+0x3c>
   13034:	00040593          	mv	a1,s0
   13038:	00048513          	mv	a0,s1
   1303c:	2e9030ef          	jal	ra,16b24 <__smakebuf_r>
   13040:	00c41783          	lh	a5,12(s0)
   13044:	01042703          	lw	a4,16(s0)
   13048:	f45ff06f          	j	12f8c <__swsetup_r+0x3c>
   1304c:	03042583          	lw	a1,48(s0)
   13050:	00058e63          	beqz	a1,1306c <__swsetup_r+0x11c>
   13054:	04040713          	addi	a4,s0,64
   13058:	00e58863          	beq	a1,a4,13068 <__swsetup_r+0x118>
   1305c:	00048513          	mv	a0,s1
   13060:	1ad000ef          	jal	ra,13a0c <_free_r>
   13064:	00c41783          	lh	a5,12(s0)
   13068:	02042823          	sw	zero,48(s0)
   1306c:	01042703          	lw	a4,16(s0)
   13070:	fdb7f793          	andi	a5,a5,-37
   13074:	00042223          	sw	zero,4(s0)
   13078:	00e42023          	sw	a4,0(s0)
   1307c:	fa1ff06f          	j	1301c <__swsetup_r+0xcc>
   13080:	00900713          	li	a4,9
   13084:	00e4a023          	sw	a4,0(s1)
   13088:	0407e793          	ori	a5,a5,64
   1308c:	f5dff06f          	j	12fe8 <__swsetup_r+0x98>

00013090 <__call_exitprocs>:
   13090:	fd010113          	addi	sp,sp,-48
   13094:	01412c23          	sw	s4,24(sp)
   13098:	1b81aa03          	lw	s4,440(gp) # 27a78 <_global_impure_ptr>
   1309c:	03212023          	sw	s2,32(sp)
   130a0:	148a2903          	lw	s2,328(s4)
   130a4:	02112623          	sw	ra,44(sp)
   130a8:	02812423          	sw	s0,40(sp)
   130ac:	02912223          	sw	s1,36(sp)
   130b0:	01312e23          	sw	s3,28(sp)
   130b4:	01512a23          	sw	s5,20(sp)
   130b8:	01612823          	sw	s6,16(sp)
   130bc:	01712623          	sw	s7,12(sp)
   130c0:	01812423          	sw	s8,8(sp)
   130c4:	04090063          	beqz	s2,13104 <__call_exitprocs+0x74>
   130c8:	00050b13          	mv	s6,a0
   130cc:	00058b93          	mv	s7,a1
   130d0:	00100a93          	li	s5,1
   130d4:	fff00993          	li	s3,-1
   130d8:	00492483          	lw	s1,4(s2)
   130dc:	fff48413          	addi	s0,s1,-1
   130e0:	02044263          	bltz	s0,13104 <__call_exitprocs+0x74>
   130e4:	00249493          	slli	s1,s1,0x2
   130e8:	009904b3          	add	s1,s2,s1
   130ec:	040b8463          	beqz	s7,13134 <__call_exitprocs+0xa4>
   130f0:	1044a783          	lw	a5,260(s1)
   130f4:	05778063          	beq	a5,s7,13134 <__call_exitprocs+0xa4>
   130f8:	fff40413          	addi	s0,s0,-1
   130fc:	ffc48493          	addi	s1,s1,-4
   13100:	ff3416e3          	bne	s0,s3,130ec <__call_exitprocs+0x5c>
   13104:	02c12083          	lw	ra,44(sp)
   13108:	02812403          	lw	s0,40(sp)
   1310c:	02412483          	lw	s1,36(sp)
   13110:	02012903          	lw	s2,32(sp)
   13114:	01c12983          	lw	s3,28(sp)
   13118:	01812a03          	lw	s4,24(sp)
   1311c:	01412a83          	lw	s5,20(sp)
   13120:	01012b03          	lw	s6,16(sp)
   13124:	00c12b83          	lw	s7,12(sp)
   13128:	00812c03          	lw	s8,8(sp)
   1312c:	03010113          	addi	sp,sp,48
   13130:	00008067          	ret
   13134:	00492783          	lw	a5,4(s2)
   13138:	0044a683          	lw	a3,4(s1)
   1313c:	fff78793          	addi	a5,a5,-1
   13140:	04878e63          	beq	a5,s0,1319c <__call_exitprocs+0x10c>
   13144:	0004a223          	sw	zero,4(s1)
   13148:	fa0688e3          	beqz	a3,130f8 <__call_exitprocs+0x68>
   1314c:	18892783          	lw	a5,392(s2)
   13150:	008a9733          	sll	a4,s5,s0
   13154:	00492c03          	lw	s8,4(s2)
   13158:	00f777b3          	and	a5,a4,a5
   1315c:	02079263          	bnez	a5,13180 <__call_exitprocs+0xf0>
   13160:	000680e7          	jalr	a3
   13164:	00492703          	lw	a4,4(s2)
   13168:	148a2783          	lw	a5,328(s4)
   1316c:	01871463          	bne	a4,s8,13174 <__call_exitprocs+0xe4>
   13170:	f92784e3          	beq	a5,s2,130f8 <__call_exitprocs+0x68>
   13174:	f80788e3          	beqz	a5,13104 <__call_exitprocs+0x74>
   13178:	00078913          	mv	s2,a5
   1317c:	f5dff06f          	j	130d8 <__call_exitprocs+0x48>
   13180:	18c92783          	lw	a5,396(s2)
   13184:	0844a583          	lw	a1,132(s1)
   13188:	00f77733          	and	a4,a4,a5
   1318c:	00071c63          	bnez	a4,131a4 <__call_exitprocs+0x114>
   13190:	000b0513          	mv	a0,s6
   13194:	000680e7          	jalr	a3
   13198:	fcdff06f          	j	13164 <__call_exitprocs+0xd4>
   1319c:	00892223          	sw	s0,4(s2)
   131a0:	fa9ff06f          	j	13148 <__call_exitprocs+0xb8>
   131a4:	00058513          	mv	a0,a1
   131a8:	000680e7          	jalr	a3
   131ac:	fb9ff06f          	j	13164 <__call_exitprocs+0xd4>

000131b0 <atexit>:
   131b0:	00050593          	mv	a1,a0
   131b4:	00000693          	li	a3,0
   131b8:	00000613          	li	a2,0
   131bc:	00000513          	li	a0,0
   131c0:	3ed0906f          	j	1cdac <__register_exitproc>

000131c4 <__sflush_r>:
   131c4:	00c59783          	lh	a5,12(a1)
   131c8:	fe010113          	addi	sp,sp,-32
   131cc:	00812c23          	sw	s0,24(sp)
   131d0:	01312623          	sw	s3,12(sp)
   131d4:	00112e23          	sw	ra,28(sp)
   131d8:	00912a23          	sw	s1,20(sp)
   131dc:	01212823          	sw	s2,16(sp)
   131e0:	0087f713          	andi	a4,a5,8
   131e4:	00058413          	mv	s0,a1
   131e8:	00050993          	mv	s3,a0
   131ec:	12071263          	bnez	a4,13310 <__sflush_r+0x14c>
   131f0:	00001737          	lui	a4,0x1
   131f4:	80070713          	addi	a4,a4,-2048 # 800 <main-0xf894>
   131f8:	0045a683          	lw	a3,4(a1)
   131fc:	00e7e733          	or	a4,a5,a4
   13200:	00e59623          	sh	a4,12(a1)
   13204:	18d05863          	blez	a3,13394 <__sflush_r+0x1d0>
   13208:	02842803          	lw	a6,40(s0)
   1320c:	0e080263          	beqz	a6,132f0 <__sflush_r+0x12c>
   13210:	00c7d793          	srli	a5,a5,0xc
   13214:	0009a483          	lw	s1,0(s3)
   13218:	0017f793          	andi	a5,a5,1
   1321c:	0009a023          	sw	zero,0(s3)
   13220:	01c42583          	lw	a1,28(s0)
   13224:	18079063          	bnez	a5,133a4 <__sflush_r+0x1e0>
   13228:	00000613          	li	a2,0
   1322c:	00100693          	li	a3,1
   13230:	00098513          	mv	a0,s3
   13234:	000800e7          	jalr	a6
   13238:	fff00793          	li	a5,-1
   1323c:	00050613          	mv	a2,a0
   13240:	1af50063          	beq	a0,a5,133e0 <__sflush_r+0x21c>
   13244:	00c41703          	lh	a4,12(s0)
   13248:	02842803          	lw	a6,40(s0)
   1324c:	01c42583          	lw	a1,28(s0)
   13250:	00477713          	andi	a4,a4,4
   13254:	00070e63          	beqz	a4,13270 <__sflush_r+0xac>
   13258:	00442703          	lw	a4,4(s0)
   1325c:	03042783          	lw	a5,48(s0)
   13260:	40e60633          	sub	a2,a2,a4
   13264:	00078663          	beqz	a5,13270 <__sflush_r+0xac>
   13268:	03c42783          	lw	a5,60(s0)
   1326c:	40f60633          	sub	a2,a2,a5
   13270:	00000693          	li	a3,0
   13274:	00098513          	mv	a0,s3
   13278:	000800e7          	jalr	a6
   1327c:	fff00793          	li	a5,-1
   13280:	12f51663          	bne	a0,a5,133ac <__sflush_r+0x1e8>
   13284:	0009a683          	lw	a3,0(s3)
   13288:	01d00793          	li	a5,29
   1328c:	0cd7ee63          	bltu	a5,a3,13368 <__sflush_r+0x1a4>
   13290:	dfc00737          	lui	a4,0xdfc00
   13294:	ffe70713          	addi	a4,a4,-2 # dfbffffe <__BSS_END__+0xdfbd8516>
   13298:	40d75733          	sra	a4,a4,a3
   1329c:	00177713          	andi	a4,a4,1
   132a0:	00c41783          	lh	a5,12(s0)
   132a4:	0c071463          	bnez	a4,1336c <__sflush_r+0x1a8>
   132a8:	01042603          	lw	a2,16(s0)
   132ac:	fffff737          	lui	a4,0xfffff
   132b0:	7ff70713          	addi	a4,a4,2047 # fffff7ff <__BSS_END__+0xfffd7d17>
   132b4:	00e7f733          	and	a4,a5,a4
   132b8:	00c7d793          	srli	a5,a5,0xc
   132bc:	00e41623          	sh	a4,12(s0)
   132c0:	00042223          	sw	zero,4(s0)
   132c4:	00c42023          	sw	a2,0(s0)
   132c8:	0017f793          	andi	a5,a5,1
   132cc:	12079c63          	bnez	a5,13404 <__sflush_r+0x240>
   132d0:	03042583          	lw	a1,48(s0)
   132d4:	0099a023          	sw	s1,0(s3)
   132d8:	00058c63          	beqz	a1,132f0 <__sflush_r+0x12c>
   132dc:	04040793          	addi	a5,s0,64
   132e0:	00f58663          	beq	a1,a5,132ec <__sflush_r+0x128>
   132e4:	00098513          	mv	a0,s3
   132e8:	724000ef          	jal	ra,13a0c <_free_r>
   132ec:	02042823          	sw	zero,48(s0)
   132f0:	00000513          	li	a0,0
   132f4:	01c12083          	lw	ra,28(sp)
   132f8:	01812403          	lw	s0,24(sp)
   132fc:	01412483          	lw	s1,20(sp)
   13300:	01012903          	lw	s2,16(sp)
   13304:	00c12983          	lw	s3,12(sp)
   13308:	02010113          	addi	sp,sp,32
   1330c:	00008067          	ret
   13310:	0105a903          	lw	s2,16(a1)
   13314:	fc090ee3          	beqz	s2,132f0 <__sflush_r+0x12c>
   13318:	0005a483          	lw	s1,0(a1)
   1331c:	0037f793          	andi	a5,a5,3
   13320:	0125a023          	sw	s2,0(a1)
   13324:	412484b3          	sub	s1,s1,s2
   13328:	00000713          	li	a4,0
   1332c:	00079463          	bnez	a5,13334 <__sflush_r+0x170>
   13330:	0145a703          	lw	a4,20(a1)
   13334:	00e42423          	sw	a4,8(s0)
   13338:	00904863          	bgtz	s1,13348 <__sflush_r+0x184>
   1333c:	fb5ff06f          	j	132f0 <__sflush_r+0x12c>
   13340:	00a90933          	add	s2,s2,a0
   13344:	fa9056e3          	blez	s1,132f0 <__sflush_r+0x12c>
   13348:	02442783          	lw	a5,36(s0)
   1334c:	01c42583          	lw	a1,28(s0)
   13350:	00048693          	mv	a3,s1
   13354:	00090613          	mv	a2,s2
   13358:	00098513          	mv	a0,s3
   1335c:	000780e7          	jalr	a5
   13360:	40a484b3          	sub	s1,s1,a0
   13364:	fca04ee3          	bgtz	a0,13340 <__sflush_r+0x17c>
   13368:	00c41783          	lh	a5,12(s0)
   1336c:	0407e793          	ori	a5,a5,64
   13370:	01c12083          	lw	ra,28(sp)
   13374:	00f41623          	sh	a5,12(s0)
   13378:	01812403          	lw	s0,24(sp)
   1337c:	01412483          	lw	s1,20(sp)
   13380:	01012903          	lw	s2,16(sp)
   13384:	00c12983          	lw	s3,12(sp)
   13388:	fff00513          	li	a0,-1
   1338c:	02010113          	addi	sp,sp,32
   13390:	00008067          	ret
   13394:	03c5a683          	lw	a3,60(a1)
   13398:	e6d048e3          	bgtz	a3,13208 <__sflush_r+0x44>
   1339c:	00000513          	li	a0,0
   133a0:	f55ff06f          	j	132f4 <__sflush_r+0x130>
   133a4:	05042603          	lw	a2,80(s0)
   133a8:	ea9ff06f          	j	13250 <__sflush_r+0x8c>
   133ac:	00c41783          	lh	a5,12(s0)
   133b0:	01042683          	lw	a3,16(s0)
   133b4:	fffff737          	lui	a4,0xfffff
   133b8:	7ff70713          	addi	a4,a4,2047 # fffff7ff <__BSS_END__+0xfffd7d17>
   133bc:	00e7f733          	and	a4,a5,a4
   133c0:	00c7d793          	srli	a5,a5,0xc
   133c4:	00e41623          	sh	a4,12(s0)
   133c8:	00042223          	sw	zero,4(s0)
   133cc:	00d42023          	sw	a3,0(s0)
   133d0:	0017f793          	andi	a5,a5,1
   133d4:	ee078ee3          	beqz	a5,132d0 <__sflush_r+0x10c>
   133d8:	04a42823          	sw	a0,80(s0)
   133dc:	ef5ff06f          	j	132d0 <__sflush_r+0x10c>
   133e0:	0009a783          	lw	a5,0(s3)
   133e4:	e60780e3          	beqz	a5,13244 <__sflush_r+0x80>
   133e8:	01d00713          	li	a4,29
   133ec:	00e78663          	beq	a5,a4,133f8 <__sflush_r+0x234>
   133f0:	01600713          	li	a4,22
   133f4:	f6e79ae3          	bne	a5,a4,13368 <__sflush_r+0x1a4>
   133f8:	0099a023          	sw	s1,0(s3)
   133fc:	00000513          	li	a0,0
   13400:	ef5ff06f          	j	132f4 <__sflush_r+0x130>
   13404:	ec0696e3          	bnez	a3,132d0 <__sflush_r+0x10c>
   13408:	04a42823          	sw	a0,80(s0)
   1340c:	ec5ff06f          	j	132d0 <__sflush_r+0x10c>

00013410 <_fflush_r>:
   13410:	fe010113          	addi	sp,sp,-32
   13414:	00812c23          	sw	s0,24(sp)
   13418:	00112e23          	sw	ra,28(sp)
   1341c:	00050413          	mv	s0,a0
   13420:	00050663          	beqz	a0,1342c <_fflush_r+0x1c>
   13424:	03852783          	lw	a5,56(a0)
   13428:	02078063          	beqz	a5,13448 <_fflush_r+0x38>
   1342c:	00c59783          	lh	a5,12(a1)
   13430:	02079663          	bnez	a5,1345c <_fflush_r+0x4c>
   13434:	01c12083          	lw	ra,28(sp)
   13438:	01812403          	lw	s0,24(sp)
   1343c:	00000513          	li	a0,0
   13440:	02010113          	addi	sp,sp,32
   13444:	00008067          	ret
   13448:	00b12623          	sw	a1,12(sp)
   1344c:	3f4000ef          	jal	ra,13840 <__sinit>
   13450:	00c12583          	lw	a1,12(sp)
   13454:	00c59783          	lh	a5,12(a1)
   13458:	fc078ee3          	beqz	a5,13434 <_fflush_r+0x24>
   1345c:	00040513          	mv	a0,s0
   13460:	01812403          	lw	s0,24(sp)
   13464:	01c12083          	lw	ra,28(sp)
   13468:	02010113          	addi	sp,sp,32
   1346c:	d59ff06f          	j	131c4 <__sflush_r>

00013470 <fflush>:
   13470:	06050663          	beqz	a0,134dc <fflush+0x6c>
   13474:	fe010113          	addi	sp,sp,-32
   13478:	00812c23          	sw	s0,24(sp)
   1347c:	00112e23          	sw	ra,28(sp)
   13480:	00050413          	mv	s0,a0
   13484:	1c01a503          	lw	a0,448(gp) # 27a80 <_impure_ptr>
   13488:	00050663          	beqz	a0,13494 <fflush+0x24>
   1348c:	03852783          	lw	a5,56(a0)
   13490:	02078a63          	beqz	a5,134c4 <fflush+0x54>
   13494:	00c41783          	lh	a5,12(s0)
   13498:	00079c63          	bnez	a5,134b0 <fflush+0x40>
   1349c:	01c12083          	lw	ra,28(sp)
   134a0:	01812403          	lw	s0,24(sp)
   134a4:	00000513          	li	a0,0
   134a8:	02010113          	addi	sp,sp,32
   134ac:	00008067          	ret
   134b0:	00040593          	mv	a1,s0
   134b4:	01812403          	lw	s0,24(sp)
   134b8:	01c12083          	lw	ra,28(sp)
   134bc:	02010113          	addi	sp,sp,32
   134c0:	d05ff06f          	j	131c4 <__sflush_r>
   134c4:	00a12623          	sw	a0,12(sp)
   134c8:	378000ef          	jal	ra,13840 <__sinit>
   134cc:	00c41783          	lh	a5,12(s0)
   134d0:	00c12503          	lw	a0,12(sp)
   134d4:	fc0784e3          	beqz	a5,1349c <fflush+0x2c>
   134d8:	fd9ff06f          	j	134b0 <fflush+0x40>
   134dc:	00000597          	auipc	a1,0x0
   134e0:	f3458593          	addi	a1,a1,-204 # 13410 <_fflush_r>
   134e4:	1b81a503          	lw	a0,440(gp) # 27a78 <_global_impure_ptr>
   134e8:	0c10006f          	j	13da8 <_fwalk_reent>

000134ec <__fp_lock>:
   134ec:	00000513          	li	a0,0
   134f0:	00008067          	ret

000134f4 <_cleanup_r>:
   134f4:	0000a597          	auipc	a1,0xa
   134f8:	bcc58593          	addi	a1,a1,-1076 # 1d0c0 <_fclose_r>
   134fc:	0ad0006f          	j	13da8 <_fwalk_reent>

00013500 <__fp_unlock>:
   13500:	00000513          	li	a0,0
   13504:	00008067          	ret

00013508 <__sinit.part.0>:
   13508:	fe010113          	addi	sp,sp,-32
   1350c:	00112e23          	sw	ra,28(sp)
   13510:	00812c23          	sw	s0,24(sp)
   13514:	00912a23          	sw	s1,20(sp)
   13518:	01212823          	sw	s2,16(sp)
   1351c:	01312623          	sw	s3,12(sp)
   13520:	01412423          	sw	s4,8(sp)
   13524:	01512223          	sw	s5,4(sp)
   13528:	01612023          	sw	s6,0(sp)
   1352c:	00452403          	lw	s0,4(a0)
   13530:	00000717          	auipc	a4,0x0
   13534:	fc470713          	addi	a4,a4,-60 # 134f4 <_cleanup_r>
   13538:	02e52e23          	sw	a4,60(a0)
   1353c:	2ec50793          	addi	a5,a0,748
   13540:	00300713          	li	a4,3
   13544:	2ee52223          	sw	a4,740(a0)
   13548:	2ef52423          	sw	a5,744(a0)
   1354c:	2e052023          	sw	zero,736(a0)
   13550:	00400793          	li	a5,4
   13554:	00050913          	mv	s2,a0
   13558:	00f42623          	sw	a5,12(s0)
   1355c:	00800613          	li	a2,8
   13560:	00000593          	li	a1,0
   13564:	00042023          	sw	zero,0(s0)
   13568:	00042223          	sw	zero,4(s0)
   1356c:	00042423          	sw	zero,8(s0)
   13570:	06042223          	sw	zero,100(s0)
   13574:	00042823          	sw	zero,16(s0)
   13578:	00042a23          	sw	zero,20(s0)
   1357c:	00042c23          	sw	zero,24(s0)
   13580:	05c40513          	addi	a0,s0,92
   13584:	d51fc0ef          	jal	ra,102d4 <memset>
   13588:	00892483          	lw	s1,8(s2)
   1358c:	00005b17          	auipc	s6,0x5
   13590:	4e4b0b13          	addi	s6,s6,1252 # 18a70 <__sread>
   13594:	00005a97          	auipc	s5,0x5
   13598:	540a8a93          	addi	s5,s5,1344 # 18ad4 <__swrite>
   1359c:	00005a17          	auipc	s4,0x5
   135a0:	5c0a0a13          	addi	s4,s4,1472 # 18b5c <__sseek>
   135a4:	00005997          	auipc	s3,0x5
   135a8:	63098993          	addi	s3,s3,1584 # 18bd4 <__sclose>
   135ac:	000107b7          	lui	a5,0x10
   135b0:	03642023          	sw	s6,32(s0)
   135b4:	03542223          	sw	s5,36(s0)
   135b8:	03442423          	sw	s4,40(s0)
   135bc:	03342623          	sw	s3,44(s0)
   135c0:	00842e23          	sw	s0,28(s0)
   135c4:	00978793          	addi	a5,a5,9 # 10009 <main-0x8b>
   135c8:	00f4a623          	sw	a5,12(s1)
   135cc:	00800613          	li	a2,8
   135d0:	00000593          	li	a1,0
   135d4:	0004a023          	sw	zero,0(s1)
   135d8:	0004a223          	sw	zero,4(s1)
   135dc:	0004a423          	sw	zero,8(s1)
   135e0:	0604a223          	sw	zero,100(s1)
   135e4:	0004a823          	sw	zero,16(s1)
   135e8:	0004aa23          	sw	zero,20(s1)
   135ec:	0004ac23          	sw	zero,24(s1)
   135f0:	05c48513          	addi	a0,s1,92
   135f4:	ce1fc0ef          	jal	ra,102d4 <memset>
   135f8:	00c92403          	lw	s0,12(s2)
   135fc:	000207b7          	lui	a5,0x20
   13600:	0364a023          	sw	s6,32(s1)
   13604:	0354a223          	sw	s5,36(s1)
   13608:	0344a423          	sw	s4,40(s1)
   1360c:	0334a623          	sw	s3,44(s1)
   13610:	0094ae23          	sw	s1,28(s1)
   13614:	01278793          	addi	a5,a5,18 # 20012 <signal+0x2a>
   13618:	00f42623          	sw	a5,12(s0)
   1361c:	00042023          	sw	zero,0(s0)
   13620:	00042223          	sw	zero,4(s0)
   13624:	00042423          	sw	zero,8(s0)
   13628:	06042223          	sw	zero,100(s0)
   1362c:	00042823          	sw	zero,16(s0)
   13630:	00042a23          	sw	zero,20(s0)
   13634:	00042c23          	sw	zero,24(s0)
   13638:	05c40513          	addi	a0,s0,92
   1363c:	00800613          	li	a2,8
   13640:	00000593          	li	a1,0
   13644:	c91fc0ef          	jal	ra,102d4 <memset>
   13648:	01c12083          	lw	ra,28(sp)
   1364c:	03642023          	sw	s6,32(s0)
   13650:	03542223          	sw	s5,36(s0)
   13654:	03442423          	sw	s4,40(s0)
   13658:	03342623          	sw	s3,44(s0)
   1365c:	00842e23          	sw	s0,28(s0)
   13660:	01812403          	lw	s0,24(sp)
   13664:	00100793          	li	a5,1
   13668:	02f92c23          	sw	a5,56(s2)
   1366c:	01412483          	lw	s1,20(sp)
   13670:	01012903          	lw	s2,16(sp)
   13674:	00c12983          	lw	s3,12(sp)
   13678:	00812a03          	lw	s4,8(sp)
   1367c:	00412a83          	lw	s5,4(sp)
   13680:	00012b03          	lw	s6,0(sp)
   13684:	02010113          	addi	sp,sp,32
   13688:	00008067          	ret

0001368c <__sfmoreglue>:
   1368c:	ff010113          	addi	sp,sp,-16
   13690:	fff58793          	addi	a5,a1,-1
   13694:	00812423          	sw	s0,8(sp)
   13698:	00179413          	slli	s0,a5,0x1
   1369c:	00f40433          	add	s0,s0,a5
   136a0:	00241413          	slli	s0,s0,0x2
   136a4:	00f40433          	add	s0,s0,a5
   136a8:	00341413          	slli	s0,s0,0x3
   136ac:	01212023          	sw	s2,0(sp)
   136b0:	00058913          	mv	s2,a1
   136b4:	07440593          	addi	a1,s0,116
   136b8:	00912223          	sw	s1,4(sp)
   136bc:	00112623          	sw	ra,12(sp)
   136c0:	6cc030ef          	jal	ra,16d8c <_malloc_r>
   136c4:	00050493          	mv	s1,a0
   136c8:	02050063          	beqz	a0,136e8 <__sfmoreglue+0x5c>
   136cc:	00c50513          	addi	a0,a0,12
   136d0:	0004a023          	sw	zero,0(s1)
   136d4:	0124a223          	sw	s2,4(s1)
   136d8:	00a4a423          	sw	a0,8(s1)
   136dc:	06840613          	addi	a2,s0,104
   136e0:	00000593          	li	a1,0
   136e4:	bf1fc0ef          	jal	ra,102d4 <memset>
   136e8:	00c12083          	lw	ra,12(sp)
   136ec:	00812403          	lw	s0,8(sp)
   136f0:	00012903          	lw	s2,0(sp)
   136f4:	00048513          	mv	a0,s1
   136f8:	00412483          	lw	s1,4(sp)
   136fc:	01010113          	addi	sp,sp,16
   13700:	00008067          	ret

00013704 <__sfp>:
   13704:	fe010113          	addi	sp,sp,-32
   13708:	01212823          	sw	s2,16(sp)
   1370c:	1b81a903          	lw	s2,440(gp) # 27a78 <_global_impure_ptr>
   13710:	03892783          	lw	a5,56(s2)
   13714:	01312623          	sw	s3,12(sp)
   13718:	00112e23          	sw	ra,28(sp)
   1371c:	00812c23          	sw	s0,24(sp)
   13720:	00912a23          	sw	s1,20(sp)
   13724:	00050993          	mv	s3,a0
   13728:	0a078663          	beqz	a5,137d4 <__sfp+0xd0>
   1372c:	2e090913          	addi	s2,s2,736
   13730:	fff00493          	li	s1,-1
   13734:	00492783          	lw	a5,4(s2)
   13738:	00892403          	lw	s0,8(s2)
   1373c:	fff78793          	addi	a5,a5,-1
   13740:	0007d863          	bgez	a5,13750 <__sfp+0x4c>
   13744:	0800006f          	j	137c4 <__sfp+0xc0>
   13748:	06840413          	addi	s0,s0,104
   1374c:	06978c63          	beq	a5,s1,137c4 <__sfp+0xc0>
   13750:	00c41703          	lh	a4,12(s0)
   13754:	fff78793          	addi	a5,a5,-1
   13758:	fe0718e3          	bnez	a4,13748 <__sfp+0x44>
   1375c:	ffff07b7          	lui	a5,0xffff0
   13760:	00178793          	addi	a5,a5,1 # ffff0001 <__BSS_END__+0xfffc8519>
   13764:	00f42623          	sw	a5,12(s0)
   13768:	06042223          	sw	zero,100(s0)
   1376c:	00042023          	sw	zero,0(s0)
   13770:	00042423          	sw	zero,8(s0)
   13774:	00042223          	sw	zero,4(s0)
   13778:	00042823          	sw	zero,16(s0)
   1377c:	00042a23          	sw	zero,20(s0)
   13780:	00042c23          	sw	zero,24(s0)
   13784:	00800613          	li	a2,8
   13788:	00000593          	li	a1,0
   1378c:	05c40513          	addi	a0,s0,92
   13790:	b45fc0ef          	jal	ra,102d4 <memset>
   13794:	02042823          	sw	zero,48(s0)
   13798:	02042a23          	sw	zero,52(s0)
   1379c:	04042223          	sw	zero,68(s0)
   137a0:	04042423          	sw	zero,72(s0)
   137a4:	01c12083          	lw	ra,28(sp)
   137a8:	00040513          	mv	a0,s0
   137ac:	01812403          	lw	s0,24(sp)
   137b0:	01412483          	lw	s1,20(sp)
   137b4:	01012903          	lw	s2,16(sp)
   137b8:	00c12983          	lw	s3,12(sp)
   137bc:	02010113          	addi	sp,sp,32
   137c0:	00008067          	ret
   137c4:	00092403          	lw	s0,0(s2)
   137c8:	00040c63          	beqz	s0,137e0 <__sfp+0xdc>
   137cc:	00040913          	mv	s2,s0
   137d0:	f65ff06f          	j	13734 <__sfp+0x30>
   137d4:	00090513          	mv	a0,s2
   137d8:	d31ff0ef          	jal	ra,13508 <__sinit.part.0>
   137dc:	f51ff06f          	j	1372c <__sfp+0x28>
   137e0:	1ac00593          	li	a1,428
   137e4:	00098513          	mv	a0,s3
   137e8:	5a4030ef          	jal	ra,16d8c <_malloc_r>
   137ec:	00050413          	mv	s0,a0
   137f0:	02050863          	beqz	a0,13820 <__sfp+0x11c>
   137f4:	00c50513          	addi	a0,a0,12
   137f8:	00400793          	li	a5,4
   137fc:	00042023          	sw	zero,0(s0)
   13800:	00f42223          	sw	a5,4(s0)
   13804:	00a42423          	sw	a0,8(s0)
   13808:	1a000613          	li	a2,416
   1380c:	00000593          	li	a1,0
   13810:	ac5fc0ef          	jal	ra,102d4 <memset>
   13814:	00892023          	sw	s0,0(s2)
   13818:	00040913          	mv	s2,s0
   1381c:	f19ff06f          	j	13734 <__sfp+0x30>
   13820:	00092023          	sw	zero,0(s2)
   13824:	00c00793          	li	a5,12
   13828:	00f9a023          	sw	a5,0(s3)
   1382c:	f79ff06f          	j	137a4 <__sfp+0xa0>

00013830 <_cleanup>:
   13830:	0000a597          	auipc	a1,0xa
   13834:	89058593          	addi	a1,a1,-1904 # 1d0c0 <_fclose_r>
   13838:	1b81a503          	lw	a0,440(gp) # 27a78 <_global_impure_ptr>
   1383c:	56c0006f          	j	13da8 <_fwalk_reent>

00013840 <__sinit>:
   13840:	03852783          	lw	a5,56(a0)
   13844:	00078463          	beqz	a5,1384c <__sinit+0xc>
   13848:	00008067          	ret
   1384c:	cbdff06f          	j	13508 <__sinit.part.0>

00013850 <__sfp_lock_acquire>:
   13850:	00008067          	ret

00013854 <__sfp_lock_release>:
   13854:	00008067          	ret

00013858 <__sinit_lock_acquire>:
   13858:	00008067          	ret

0001385c <__sinit_lock_release>:
   1385c:	00008067          	ret

00013860 <__fp_lock_all>:
   13860:	00000597          	auipc	a1,0x0
   13864:	c8c58593          	addi	a1,a1,-884 # 134ec <__fp_lock>
   13868:	1c01a503          	lw	a0,448(gp) # 27a80 <_impure_ptr>
   1386c:	4980006f          	j	13d04 <_fwalk>

00013870 <__fp_unlock_all>:
   13870:	00000597          	auipc	a1,0x0
   13874:	c9058593          	addi	a1,a1,-880 # 13500 <__fp_unlock>
   13878:	1c01a503          	lw	a0,448(gp) # 27a80 <_impure_ptr>
   1387c:	4880006f          	j	13d04 <_fwalk>

00013880 <__libc_fini_array>:
   13880:	ff010113          	addi	sp,sp,-16
   13884:	00812423          	sw	s0,8(sp)
   13888:	00014797          	auipc	a5,0x14
   1388c:	83478793          	addi	a5,a5,-1996 # 270bc <__do_global_dtors_aux_fini_array_entry>
   13890:	00014417          	auipc	s0,0x14
   13894:	83040413          	addi	s0,s0,-2000 # 270c0 <impure_data>
   13898:	40f40433          	sub	s0,s0,a5
   1389c:	00912223          	sw	s1,4(sp)
   138a0:	00112623          	sw	ra,12(sp)
   138a4:	40245493          	srai	s1,s0,0x2
   138a8:	02048063          	beqz	s1,138c8 <__libc_fini_array+0x48>
   138ac:	ffc40413          	addi	s0,s0,-4
   138b0:	00f40433          	add	s0,s0,a5
   138b4:	00042783          	lw	a5,0(s0)
   138b8:	fff48493          	addi	s1,s1,-1
   138bc:	ffc40413          	addi	s0,s0,-4
   138c0:	000780e7          	jalr	a5
   138c4:	fe0498e3          	bnez	s1,138b4 <__libc_fini_array+0x34>
   138c8:	00c12083          	lw	ra,12(sp)
   138cc:	00812403          	lw	s0,8(sp)
   138d0:	00412483          	lw	s1,4(sp)
   138d4:	01010113          	addi	sp,sp,16
   138d8:	00008067          	ret

000138dc <_malloc_trim_r>:
   138dc:	fe010113          	addi	sp,sp,-32
   138e0:	00812c23          	sw	s0,24(sp)
   138e4:	00912a23          	sw	s1,20(sp)
   138e8:	01212823          	sw	s2,16(sp)
   138ec:	01312623          	sw	s3,12(sp)
   138f0:	01412423          	sw	s4,8(sp)
   138f4:	00058993          	mv	s3,a1
   138f8:	00112e23          	sw	ra,28(sp)
   138fc:	c2818a13          	addi	s4,gp,-984 # 274e8 <__malloc_av_>
   13900:	00050913          	mv	s2,a0
   13904:	4cd030ef          	jal	ra,175d0 <__malloc_lock>
   13908:	008a2703          	lw	a4,8(s4)
   1390c:	000017b7          	lui	a5,0x1
   13910:	fef78413          	addi	s0,a5,-17 # fef <main-0xf0a5>
   13914:	00472483          	lw	s1,4(a4)
   13918:	ffc4f493          	andi	s1,s1,-4
   1391c:	00848433          	add	s0,s1,s0
   13920:	41340433          	sub	s0,s0,s3
   13924:	00c45413          	srli	s0,s0,0xc
   13928:	fff40413          	addi	s0,s0,-1
   1392c:	00c41413          	slli	s0,s0,0xc
   13930:	00f44e63          	blt	s0,a5,1394c <_malloc_trim_r+0x70>
   13934:	00000593          	li	a1,0
   13938:	00090513          	mv	a0,s2
   1393c:	000050ef          	jal	ra,1893c <_sbrk_r>
   13940:	008a2783          	lw	a5,8(s4)
   13944:	009787b3          	add	a5,a5,s1
   13948:	02f50863          	beq	a0,a5,13978 <_malloc_trim_r+0x9c>
   1394c:	00090513          	mv	a0,s2
   13950:	485030ef          	jal	ra,175d4 <__malloc_unlock>
   13954:	01c12083          	lw	ra,28(sp)
   13958:	01812403          	lw	s0,24(sp)
   1395c:	01412483          	lw	s1,20(sp)
   13960:	01012903          	lw	s2,16(sp)
   13964:	00c12983          	lw	s3,12(sp)
   13968:	00812a03          	lw	s4,8(sp)
   1396c:	00000513          	li	a0,0
   13970:	02010113          	addi	sp,sp,32
   13974:	00008067          	ret
   13978:	408005b3          	neg	a1,s0
   1397c:	00090513          	mv	a0,s2
   13980:	7bd040ef          	jal	ra,1893c <_sbrk_r>
   13984:	fff00793          	li	a5,-1
   13988:	04f50863          	beq	a0,a5,139d8 <_malloc_trim_r+0xfc>
   1398c:	20018713          	addi	a4,gp,512 # 27ac0 <__malloc_current_mallinfo>
   13990:	00072783          	lw	a5,0(a4)
   13994:	008a2683          	lw	a3,8(s4)
   13998:	408484b3          	sub	s1,s1,s0
   1399c:	0014e493          	ori	s1,s1,1
   139a0:	408787b3          	sub	a5,a5,s0
   139a4:	00090513          	mv	a0,s2
   139a8:	0096a223          	sw	s1,4(a3)
   139ac:	00f72023          	sw	a5,0(a4)
   139b0:	425030ef          	jal	ra,175d4 <__malloc_unlock>
   139b4:	01c12083          	lw	ra,28(sp)
   139b8:	01812403          	lw	s0,24(sp)
   139bc:	01412483          	lw	s1,20(sp)
   139c0:	01012903          	lw	s2,16(sp)
   139c4:	00c12983          	lw	s3,12(sp)
   139c8:	00812a03          	lw	s4,8(sp)
   139cc:	00100513          	li	a0,1
   139d0:	02010113          	addi	sp,sp,32
   139d4:	00008067          	ret
   139d8:	00000593          	li	a1,0
   139dc:	00090513          	mv	a0,s2
   139e0:	75d040ef          	jal	ra,1893c <_sbrk_r>
   139e4:	008a2703          	lw	a4,8(s4)
   139e8:	00f00693          	li	a3,15
   139ec:	40e507b3          	sub	a5,a0,a4
   139f0:	f4f6dee3          	bge	a3,a5,1394c <_malloc_trim_r+0x70>
   139f4:	1c41a683          	lw	a3,452(gp) # 27a84 <__malloc_sbrk_base>
   139f8:	40d50533          	sub	a0,a0,a3
   139fc:	0017e793          	ori	a5,a5,1
   13a00:	20a1a023          	sw	a0,512(gp) # 27ac0 <__malloc_current_mallinfo>
   13a04:	00f72223          	sw	a5,4(a4)
   13a08:	f45ff06f          	j	1394c <_malloc_trim_r+0x70>

00013a0c <_free_r>:
   13a0c:	16058e63          	beqz	a1,13b88 <_free_r+0x17c>
   13a10:	ff010113          	addi	sp,sp,-16
   13a14:	00812423          	sw	s0,8(sp)
   13a18:	00912223          	sw	s1,4(sp)
   13a1c:	00058413          	mv	s0,a1
   13a20:	00050493          	mv	s1,a0
   13a24:	00112623          	sw	ra,12(sp)
   13a28:	3a9030ef          	jal	ra,175d0 <__malloc_lock>
   13a2c:	ffc42583          	lw	a1,-4(s0)
   13a30:	ff840713          	addi	a4,s0,-8
   13a34:	c2818513          	addi	a0,gp,-984 # 274e8 <__malloc_av_>
   13a38:	ffe5f793          	andi	a5,a1,-2
   13a3c:	00f70633          	add	a2,a4,a5
   13a40:	00462683          	lw	a3,4(a2)
   13a44:	00852803          	lw	a6,8(a0)
   13a48:	ffc6f693          	andi	a3,a3,-4
   13a4c:	18c80e63          	beq	a6,a2,13be8 <_free_r+0x1dc>
   13a50:	00d62223          	sw	a3,4(a2)
   13a54:	0015f593          	andi	a1,a1,1
   13a58:	00d60833          	add	a6,a2,a3
   13a5c:	08059e63          	bnez	a1,13af8 <_free_r+0xec>
   13a60:	ff842303          	lw	t1,-8(s0)
   13a64:	00482583          	lw	a1,4(a6)
   13a68:	c3018893          	addi	a7,gp,-976 # 274f0 <__malloc_av_+0x8>
   13a6c:	40670733          	sub	a4,a4,t1
   13a70:	00872803          	lw	a6,8(a4)
   13a74:	006787b3          	add	a5,a5,t1
   13a78:	0015f593          	andi	a1,a1,1
   13a7c:	15180063          	beq	a6,a7,13bbc <_free_r+0x1b0>
   13a80:	00c72303          	lw	t1,12(a4)
   13a84:	00682623          	sw	t1,12(a6)
   13a88:	01032423          	sw	a6,8(t1)
   13a8c:	1a058463          	beqz	a1,13c34 <_free_r+0x228>
   13a90:	0017e693          	ori	a3,a5,1
   13a94:	00d72223          	sw	a3,4(a4)
   13a98:	00f62023          	sw	a5,0(a2)
   13a9c:	1ff00693          	li	a3,511
   13aa0:	06f6ec63          	bltu	a3,a5,13b18 <_free_r+0x10c>
   13aa4:	ff87f693          	andi	a3,a5,-8
   13aa8:	00868693          	addi	a3,a3,8
   13aac:	00452583          	lw	a1,4(a0)
   13ab0:	00d506b3          	add	a3,a0,a3
   13ab4:	0006a603          	lw	a2,0(a3)
   13ab8:	0057d813          	srli	a6,a5,0x5
   13abc:	00100793          	li	a5,1
   13ac0:	010797b3          	sll	a5,a5,a6
   13ac4:	00b7e7b3          	or	a5,a5,a1
   13ac8:	ff868593          	addi	a1,a3,-8
   13acc:	00b72623          	sw	a1,12(a4)
   13ad0:	00c72423          	sw	a2,8(a4)
   13ad4:	00f52223          	sw	a5,4(a0)
   13ad8:	00e6a023          	sw	a4,0(a3)
   13adc:	00e62623          	sw	a4,12(a2)
   13ae0:	00812403          	lw	s0,8(sp)
   13ae4:	00c12083          	lw	ra,12(sp)
   13ae8:	00048513          	mv	a0,s1
   13aec:	00412483          	lw	s1,4(sp)
   13af0:	01010113          	addi	sp,sp,16
   13af4:	2e10306f          	j	175d4 <__malloc_unlock>
   13af8:	00482583          	lw	a1,4(a6)
   13afc:	0015f593          	andi	a1,a1,1
   13b00:	08058663          	beqz	a1,13b8c <_free_r+0x180>
   13b04:	0017e693          	ori	a3,a5,1
   13b08:	fed42e23          	sw	a3,-4(s0)
   13b0c:	00f62023          	sw	a5,0(a2)
   13b10:	1ff00693          	li	a3,511
   13b14:	f8f6f8e3          	bgeu	a3,a5,13aa4 <_free_r+0x98>
   13b18:	0097d693          	srli	a3,a5,0x9
   13b1c:	00400613          	li	a2,4
   13b20:	10d66e63          	bltu	a2,a3,13c3c <_free_r+0x230>
   13b24:	0067d693          	srli	a3,a5,0x6
   13b28:	03968593          	addi	a1,a3,57
   13b2c:	03868613          	addi	a2,a3,56
   13b30:	00359593          	slli	a1,a1,0x3
   13b34:	00b505b3          	add	a1,a0,a1
   13b38:	0005a683          	lw	a3,0(a1)
   13b3c:	ff858593          	addi	a1,a1,-8
   13b40:	00d59863          	bne	a1,a3,13b50 <_free_r+0x144>
   13b44:	1500006f          	j	13c94 <_free_r+0x288>
   13b48:	0086a683          	lw	a3,8(a3)
   13b4c:	00d58863          	beq	a1,a3,13b5c <_free_r+0x150>
   13b50:	0046a603          	lw	a2,4(a3)
   13b54:	ffc67613          	andi	a2,a2,-4
   13b58:	fec7e8e3          	bltu	a5,a2,13b48 <_free_r+0x13c>
   13b5c:	00c6a583          	lw	a1,12(a3)
   13b60:	00b72623          	sw	a1,12(a4)
   13b64:	00d72423          	sw	a3,8(a4)
   13b68:	00812403          	lw	s0,8(sp)
   13b6c:	00c12083          	lw	ra,12(sp)
   13b70:	00e5a423          	sw	a4,8(a1)
   13b74:	00048513          	mv	a0,s1
   13b78:	00412483          	lw	s1,4(sp)
   13b7c:	00e6a623          	sw	a4,12(a3)
   13b80:	01010113          	addi	sp,sp,16
   13b84:	2510306f          	j	175d4 <__malloc_unlock>
   13b88:	00008067          	ret
   13b8c:	00d787b3          	add	a5,a5,a3
   13b90:	c3018893          	addi	a7,gp,-976 # 274f0 <__malloc_av_+0x8>
   13b94:	00862683          	lw	a3,8(a2)
   13b98:	0d168c63          	beq	a3,a7,13c70 <_free_r+0x264>
   13b9c:	00c62803          	lw	a6,12(a2)
   13ba0:	0017e593          	ori	a1,a5,1
   13ba4:	00f70633          	add	a2,a4,a5
   13ba8:	0106a623          	sw	a6,12(a3)
   13bac:	00d82423          	sw	a3,8(a6)
   13bb0:	00b72223          	sw	a1,4(a4)
   13bb4:	00f62023          	sw	a5,0(a2)
   13bb8:	ee5ff06f          	j	13a9c <_free_r+0x90>
   13bbc:	12059c63          	bnez	a1,13cf4 <_free_r+0x2e8>
   13bc0:	00862583          	lw	a1,8(a2)
   13bc4:	00c62603          	lw	a2,12(a2)
   13bc8:	00f686b3          	add	a3,a3,a5
   13bcc:	0016e793          	ori	a5,a3,1
   13bd0:	00c5a623          	sw	a2,12(a1)
   13bd4:	00b62423          	sw	a1,8(a2)
   13bd8:	00f72223          	sw	a5,4(a4)
   13bdc:	00d70733          	add	a4,a4,a3
   13be0:	00d72023          	sw	a3,0(a4)
   13be4:	efdff06f          	j	13ae0 <_free_r+0xd4>
   13be8:	0015f593          	andi	a1,a1,1
   13bec:	00d786b3          	add	a3,a5,a3
   13bf0:	02059063          	bnez	a1,13c10 <_free_r+0x204>
   13bf4:	ff842583          	lw	a1,-8(s0)
   13bf8:	40b70733          	sub	a4,a4,a1
   13bfc:	00c72783          	lw	a5,12(a4)
   13c00:	00872603          	lw	a2,8(a4)
   13c04:	00b686b3          	add	a3,a3,a1
   13c08:	00f62623          	sw	a5,12(a2)
   13c0c:	00c7a423          	sw	a2,8(a5)
   13c10:	0016e793          	ori	a5,a3,1
   13c14:	00f72223          	sw	a5,4(a4)
   13c18:	00e52423          	sw	a4,8(a0)
   13c1c:	1c81a783          	lw	a5,456(gp) # 27a88 <__malloc_trim_threshold>
   13c20:	ecf6e0e3          	bltu	a3,a5,13ae0 <_free_r+0xd4>
   13c24:	1d41a583          	lw	a1,468(gp) # 27a94 <__malloc_top_pad>
   13c28:	00048513          	mv	a0,s1
   13c2c:	cb1ff0ef          	jal	ra,138dc <_malloc_trim_r>
   13c30:	eb1ff06f          	j	13ae0 <_free_r+0xd4>
   13c34:	00d787b3          	add	a5,a5,a3
   13c38:	f5dff06f          	j	13b94 <_free_r+0x188>
   13c3c:	01400613          	li	a2,20
   13c40:	02d67063          	bgeu	a2,a3,13c60 <_free_r+0x254>
   13c44:	05400613          	li	a2,84
   13c48:	06d66463          	bltu	a2,a3,13cb0 <_free_r+0x2a4>
   13c4c:	00c7d693          	srli	a3,a5,0xc
   13c50:	06f68593          	addi	a1,a3,111
   13c54:	06e68613          	addi	a2,a3,110
   13c58:	00359593          	slli	a1,a1,0x3
   13c5c:	ed9ff06f          	j	13b34 <_free_r+0x128>
   13c60:	05c68593          	addi	a1,a3,92
   13c64:	05b68613          	addi	a2,a3,91
   13c68:	00359593          	slli	a1,a1,0x3
   13c6c:	ec9ff06f          	j	13b34 <_free_r+0x128>
   13c70:	00e52a23          	sw	a4,20(a0)
   13c74:	00e52823          	sw	a4,16(a0)
   13c78:	0017e693          	ori	a3,a5,1
   13c7c:	01172623          	sw	a7,12(a4)
   13c80:	01172423          	sw	a7,8(a4)
   13c84:	00d72223          	sw	a3,4(a4)
   13c88:	00f70733          	add	a4,a4,a5
   13c8c:	00f72023          	sw	a5,0(a4)
   13c90:	e51ff06f          	j	13ae0 <_free_r+0xd4>
   13c94:	00452803          	lw	a6,4(a0)
   13c98:	40265613          	srai	a2,a2,0x2
   13c9c:	00100793          	li	a5,1
   13ca0:	00c797b3          	sll	a5,a5,a2
   13ca4:	0107e7b3          	or	a5,a5,a6
   13ca8:	00f52223          	sw	a5,4(a0)
   13cac:	eb5ff06f          	j	13b60 <_free_r+0x154>
   13cb0:	15400613          	li	a2,340
   13cb4:	00d66c63          	bltu	a2,a3,13ccc <_free_r+0x2c0>
   13cb8:	00f7d693          	srli	a3,a5,0xf
   13cbc:	07868593          	addi	a1,a3,120
   13cc0:	07768613          	addi	a2,a3,119
   13cc4:	00359593          	slli	a1,a1,0x3
   13cc8:	e6dff06f          	j	13b34 <_free_r+0x128>
   13ccc:	55400613          	li	a2,1364
   13cd0:	00d66c63          	bltu	a2,a3,13ce8 <_free_r+0x2dc>
   13cd4:	0127d693          	srli	a3,a5,0x12
   13cd8:	07d68593          	addi	a1,a3,125
   13cdc:	07c68613          	addi	a2,a3,124
   13ce0:	00359593          	slli	a1,a1,0x3
   13ce4:	e51ff06f          	j	13b34 <_free_r+0x128>
   13ce8:	3f800593          	li	a1,1016
   13cec:	07e00613          	li	a2,126
   13cf0:	e45ff06f          	j	13b34 <_free_r+0x128>
   13cf4:	0017e693          	ori	a3,a5,1
   13cf8:	00d72223          	sw	a3,4(a4)
   13cfc:	00f62023          	sw	a5,0(a2)
   13d00:	de1ff06f          	j	13ae0 <_free_r+0xd4>

00013d04 <_fwalk>:
   13d04:	fe010113          	addi	sp,sp,-32
   13d08:	01212823          	sw	s2,16(sp)
   13d0c:	01312623          	sw	s3,12(sp)
   13d10:	01412423          	sw	s4,8(sp)
   13d14:	01512223          	sw	s5,4(sp)
   13d18:	01612023          	sw	s6,0(sp)
   13d1c:	00112e23          	sw	ra,28(sp)
   13d20:	00812c23          	sw	s0,24(sp)
   13d24:	00912a23          	sw	s1,20(sp)
   13d28:	00058b13          	mv	s6,a1
   13d2c:	2e050a93          	addi	s5,a0,736
   13d30:	00000a13          	li	s4,0
   13d34:	00100993          	li	s3,1
   13d38:	fff00913          	li	s2,-1
   13d3c:	004aa483          	lw	s1,4(s5)
   13d40:	008aa403          	lw	s0,8(s5)
   13d44:	fff48493          	addi	s1,s1,-1
   13d48:	0204c663          	bltz	s1,13d74 <_fwalk+0x70>
   13d4c:	00c45783          	lhu	a5,12(s0)
   13d50:	fff48493          	addi	s1,s1,-1
   13d54:	00f9fc63          	bgeu	s3,a5,13d6c <_fwalk+0x68>
   13d58:	00e41783          	lh	a5,14(s0)
   13d5c:	00040513          	mv	a0,s0
   13d60:	01278663          	beq	a5,s2,13d6c <_fwalk+0x68>
   13d64:	000b00e7          	jalr	s6
   13d68:	00aa6a33          	or	s4,s4,a0
   13d6c:	06840413          	addi	s0,s0,104
   13d70:	fd249ee3          	bne	s1,s2,13d4c <_fwalk+0x48>
   13d74:	000aaa83          	lw	s5,0(s5)
   13d78:	fc0a92e3          	bnez	s5,13d3c <_fwalk+0x38>
   13d7c:	01c12083          	lw	ra,28(sp)
   13d80:	01812403          	lw	s0,24(sp)
   13d84:	01412483          	lw	s1,20(sp)
   13d88:	01012903          	lw	s2,16(sp)
   13d8c:	00c12983          	lw	s3,12(sp)
   13d90:	00412a83          	lw	s5,4(sp)
   13d94:	00012b03          	lw	s6,0(sp)
   13d98:	000a0513          	mv	a0,s4
   13d9c:	00812a03          	lw	s4,8(sp)
   13da0:	02010113          	addi	sp,sp,32
   13da4:	00008067          	ret

00013da8 <_fwalk_reent>:
   13da8:	fd010113          	addi	sp,sp,-48
   13dac:	03212023          	sw	s2,32(sp)
   13db0:	01312e23          	sw	s3,28(sp)
   13db4:	01412c23          	sw	s4,24(sp)
   13db8:	01512a23          	sw	s5,20(sp)
   13dbc:	01612823          	sw	s6,16(sp)
   13dc0:	01712623          	sw	s7,12(sp)
   13dc4:	02112623          	sw	ra,44(sp)
   13dc8:	02812423          	sw	s0,40(sp)
   13dcc:	02912223          	sw	s1,36(sp)
   13dd0:	00050a93          	mv	s5,a0
   13dd4:	00058b93          	mv	s7,a1
   13dd8:	2e050b13          	addi	s6,a0,736
   13ddc:	00000a13          	li	s4,0
   13de0:	00100993          	li	s3,1
   13de4:	fff00913          	li	s2,-1
   13de8:	004b2483          	lw	s1,4(s6)
   13dec:	008b2403          	lw	s0,8(s6)
   13df0:	fff48493          	addi	s1,s1,-1
   13df4:	0204c863          	bltz	s1,13e24 <_fwalk_reent+0x7c>
   13df8:	00c45783          	lhu	a5,12(s0)
   13dfc:	fff48493          	addi	s1,s1,-1
   13e00:	00f9fe63          	bgeu	s3,a5,13e1c <_fwalk_reent+0x74>
   13e04:	00e41783          	lh	a5,14(s0)
   13e08:	00040593          	mv	a1,s0
   13e0c:	000a8513          	mv	a0,s5
   13e10:	01278663          	beq	a5,s2,13e1c <_fwalk_reent+0x74>
   13e14:	000b80e7          	jalr	s7
   13e18:	00aa6a33          	or	s4,s4,a0
   13e1c:	06840413          	addi	s0,s0,104
   13e20:	fd249ce3          	bne	s1,s2,13df8 <_fwalk_reent+0x50>
   13e24:	000b2b03          	lw	s6,0(s6)
   13e28:	fc0b10e3          	bnez	s6,13de8 <_fwalk_reent+0x40>
   13e2c:	02c12083          	lw	ra,44(sp)
   13e30:	02812403          	lw	s0,40(sp)
   13e34:	02412483          	lw	s1,36(sp)
   13e38:	02012903          	lw	s2,32(sp)
   13e3c:	01c12983          	lw	s3,28(sp)
   13e40:	01412a83          	lw	s5,20(sp)
   13e44:	01012b03          	lw	s6,16(sp)
   13e48:	00c12b83          	lw	s7,12(sp)
   13e4c:	000a0513          	mv	a0,s4
   13e50:	01812a03          	lw	s4,24(sp)
   13e54:	03010113          	addi	sp,sp,48
   13e58:	00008067          	ret

00013e5c <eshdn1>:
   13e5c:	00450693          	addi	a3,a0,4
   13e60:	00000713          	li	a4,0
   13e64:	01a50513          	addi	a0,a0,26
   13e68:	ffff8837          	lui	a6,0xffff8
   13e6c:	0006d783          	lhu	a5,0(a3)
   13e70:	0017f613          	andi	a2,a5,1
   13e74:	00060463          	beqz	a2,13e7c <eshdn1+0x20>
   13e78:	00176713          	ori	a4,a4,1
   13e7c:	00277613          	andi	a2,a4,2
   13e80:	0017d793          	srli	a5,a5,0x1
   13e84:	00171713          	slli	a4,a4,0x1
   13e88:	0107e5b3          	or	a1,a5,a6
   13e8c:	00060663          	beqz	a2,13e98 <eshdn1+0x3c>
   13e90:	01059793          	slli	a5,a1,0x10
   13e94:	0107d793          	srli	a5,a5,0x10
   13e98:	00f69023          	sh	a5,0(a3)
   13e9c:	01071713          	slli	a4,a4,0x10
   13ea0:	00268693          	addi	a3,a3,2
   13ea4:	01075713          	srli	a4,a4,0x10
   13ea8:	fcd512e3          	bne	a0,a3,13e6c <eshdn1+0x10>
   13eac:	00008067          	ret

00013eb0 <eshup1>:
   13eb0:	01850693          	addi	a3,a0,24
   13eb4:	00000713          	li	a4,0
   13eb8:	00250513          	addi	a0,a0,2
   13ebc:	0006d783          	lhu	a5,0(a3)
   13ec0:	01079613          	slli	a2,a5,0x10
   13ec4:	41065613          	srai	a2,a2,0x10
   13ec8:	00179793          	slli	a5,a5,0x1
   13ecc:	00065463          	bgez	a2,13ed4 <eshup1+0x24>
   13ed0:	00176713          	ori	a4,a4,1
   13ed4:	00277613          	andi	a2,a4,2
   13ed8:	01079793          	slli	a5,a5,0x10
   13edc:	00171713          	slli	a4,a4,0x1
   13ee0:	0107d793          	srli	a5,a5,0x10
   13ee4:	00060463          	beqz	a2,13eec <eshup1+0x3c>
   13ee8:	0017e793          	ori	a5,a5,1
   13eec:	00f69023          	sh	a5,0(a3)
   13ef0:	01071713          	slli	a4,a4,0x10
   13ef4:	ffe68693          	addi	a3,a3,-2
   13ef8:	01075713          	srli	a4,a4,0x10
   13efc:	fcd510e3          	bne	a0,a3,13ebc <eshup1+0xc>
   13f00:	00008067          	ret

00013f04 <m16m>:
   13f04:	fc010113          	addi	sp,sp,-64
   13f08:	03412423          	sw	s4,40(sp)
   13f0c:	00010a37          	lui	s4,0x10
   13f10:	02812c23          	sw	s0,56(sp)
   13f14:	02912a23          	sw	s1,52(sp)
   13f18:	03212823          	sw	s2,48(sp)
   13f1c:	03312623          	sw	s3,44(sp)
   13f20:	03512223          	sw	s5,36(sp)
   13f24:	02112e23          	sw	ra,60(sp)
   13f28:	00050993          	mv	s3,a0
   13f2c:	00060493          	mv	s1,a2
   13f30:	00011d23          	sh	zero,26(sp)
   13f34:	00011e23          	sh	zero,28(sp)
   13f38:	01858913          	addi	s2,a1,24
   13f3c:	01c10413          	addi	s0,sp,28
   13f40:	00810a93          	addi	s5,sp,8
   13f44:	fffa0a13          	addi	s4,s4,-1 # ffff <main-0x95>
   13f48:	00095503          	lhu	a0,0(s2)
   13f4c:	00098593          	mv	a1,s3
   13f50:	ffe40413          	addi	s0,s0,-2
   13f54:	ffe90913          	addi	s2,s2,-2
   13f58:	02050a63          	beqz	a0,13f8c <m16m+0x88>
   13f5c:	305110ef          	jal	ra,25a60 <__mulsi3>
   13f60:	00245703          	lhu	a4,2(s0)
   13f64:	00045683          	lhu	a3,0(s0)
   13f68:	014577b3          	and	a5,a0,s4
   13f6c:	00e787b3          	add	a5,a5,a4
   13f70:	01055513          	srli	a0,a0,0x10
   13f74:	0107d713          	srli	a4,a5,0x10
   13f78:	00d50533          	add	a0,a0,a3
   13f7c:	00e50533          	add	a0,a0,a4
   13f80:	00a41023          	sh	a0,0(s0)
   13f84:	00f41123          	sh	a5,2(s0)
   13f88:	01055513          	srli	a0,a0,0x10
   13f8c:	fea41f23          	sh	a0,-2(s0)
   13f90:	fb541ce3          	bne	s0,s5,13f48 <m16m+0x44>
   13f94:	00448613          	addi	a2,s1,4
   13f98:	01e10713          	addi	a4,sp,30
   13f9c:	00045783          	lhu	a5,0(s0)
   13fa0:	00240413          	addi	s0,s0,2
   13fa4:	00260613          	addi	a2,a2,2
   13fa8:	fef61f23          	sh	a5,-2(a2)
   13fac:	fee418e3          	bne	s0,a4,13f9c <m16m+0x98>
   13fb0:	03c12083          	lw	ra,60(sp)
   13fb4:	03812403          	lw	s0,56(sp)
   13fb8:	03412483          	lw	s1,52(sp)
   13fbc:	03012903          	lw	s2,48(sp)
   13fc0:	02c12983          	lw	s3,44(sp)
   13fc4:	02812a03          	lw	s4,40(sp)
   13fc8:	02412a83          	lw	s5,36(sp)
   13fcc:	04010113          	addi	sp,sp,64
   13fd0:	00008067          	ret

00013fd4 <emovo.constprop.0>:
   13fd4:	00055703          	lhu	a4,0(a0)
   13fd8:	00255783          	lhu	a5,2(a0)
   13fdc:	00070663          	beqz	a4,13fe8 <emovo.constprop.0+0x14>
   13fe0:	00008737          	lui	a4,0x8
   13fe4:	00e7e7b3          	or	a5,a5,a4
   13fe8:	00f59923          	sh	a5,18(a1)
   13fec:	00255703          	lhu	a4,2(a0)
   13ff0:	000087b7          	lui	a5,0x8
   13ff4:	fff78793          	addi	a5,a5,-1 # 7fff <main-0x8095>
   13ff8:	02f70463          	beq	a4,a5,14020 <emovo.constprop.0+0x4c>
   13ffc:	00650793          	addi	a5,a0,6
   14000:	01058593          	addi	a1,a1,16
   14004:	01850513          	addi	a0,a0,24
   14008:	0007d703          	lhu	a4,0(a5)
   1400c:	00278793          	addi	a5,a5,2
   14010:	ffe58593          	addi	a1,a1,-2
   14014:	00e59123          	sh	a4,2(a1)
   14018:	fea798e3          	bne	a5,a0,14008 <emovo.constprop.0+0x34>
   1401c:	00008067          	ret
   14020:	00650793          	addi	a5,a0,6
   14024:	01a50513          	addi	a0,a0,26
   14028:	0007d703          	lhu	a4,0(a5)
   1402c:	00278793          	addi	a5,a5,2
   14030:	02071a63          	bnez	a4,14064 <emovo.constprop.0+0x90>
   14034:	fef51ae3          	bne	a0,a5,14028 <emovo.constprop.0+0x54>
   14038:	01258713          	addi	a4,a1,18
   1403c:	00058793          	mv	a5,a1
   14040:	00278793          	addi	a5,a5,2
   14044:	fe079f23          	sh	zero,-2(a5)
   14048:	fee79ce3          	bne	a5,a4,14040 <emovo.constprop.0+0x6c>
   1404c:	0125d783          	lhu	a5,18(a1)
   14050:	00008737          	lui	a4,0x8
   14054:	fff70713          	addi	a4,a4,-1 # 7fff <main-0x8095>
   14058:	00e7e7b3          	or	a5,a5,a4
   1405c:	00f59923          	sh	a5,18(a1)
   14060:	00008067          	ret
   14064:	01058713          	addi	a4,a1,16
   14068:	00058793          	mv	a5,a1
   1406c:	00278793          	addi	a5,a5,2
   14070:	fe079f23          	sh	zero,-2(a5)
   14074:	fee79ce3          	bne	a5,a4,1406c <emovo.constprop.0+0x98>
   14078:	ffffc7b7          	lui	a5,0xffffc
   1407c:	00f59823          	sh	a5,16(a1)
   14080:	ffff87b7          	lui	a5,0xffff8
   14084:	fff7c793          	not	a5,a5
   14088:	00f59923          	sh	a5,18(a1)
   1408c:	00008067          	ret

00014090 <enormlz>:
   14090:	00455783          	lhu	a5,4(a0)
   14094:	ff010113          	addi	sp,sp,-16
   14098:	00912223          	sw	s1,4(sp)
   1409c:	00112623          	sw	ra,12(sp)
   140a0:	00812423          	sw	s0,8(sp)
   140a4:	01212023          	sw	s2,0(sp)
   140a8:	00050493          	mv	s1,a0
   140ac:	0c079a63          	bnez	a5,14180 <enormlz+0xf0>
   140b0:	00655783          	lhu	a5,6(a0)
   140b4:	00000413          	li	s0,0
   140b8:	01079713          	slli	a4,a5,0x10
   140bc:	41075713          	srai	a4,a4,0x10
   140c0:	0a074263          	bltz	a4,14164 <enormlz+0xd4>
   140c4:	01850693          	addi	a3,a0,24
   140c8:	0a000613          	li	a2,160
   140cc:	02079663          	bnez	a5,140f8 <enormlz+0x68>
   140d0:	00448793          	addi	a5,s1,4
   140d4:	0027d703          	lhu	a4,2(a5) # ffff8002 <__BSS_END__+0xfffd051a>
   140d8:	00278793          	addi	a5,a5,2
   140dc:	fee79f23          	sh	a4,-2(a5)
   140e0:	fed79ae3          	bne	a5,a3,140d4 <enormlz+0x44>
   140e4:	00049c23          	sh	zero,24(s1)
   140e8:	01040413          	addi	s0,s0,16
   140ec:	06c40c63          	beq	s0,a2,14164 <enormlz+0xd4>
   140f0:	0064d783          	lhu	a5,6(s1)
   140f4:	fc078ee3          	beqz	a5,140d0 <enormlz+0x40>
   140f8:	0ff00713          	li	a4,255
   140fc:	04f76063          	bltu	a4,a5,1413c <enormlz+0xac>
   14100:	01848813          	addi	a6,s1,24
   14104:	00248593          	addi	a1,s1,2
   14108:	0ff00513          	li	a0,255
   1410c:	00000793          	li	a5,0
   14110:	00080713          	mv	a4,a6
   14114:	00075683          	lhu	a3,0(a4)
   14118:	ffe70713          	addi	a4,a4,-2
   1411c:	00869613          	slli	a2,a3,0x8
   14120:	00c7e7b3          	or	a5,a5,a2
   14124:	00f71123          	sh	a5,2(a4)
   14128:	0086d793          	srli	a5,a3,0x8
   1412c:	feb714e3          	bne	a4,a1,14114 <enormlz+0x84>
   14130:	0064d783          	lhu	a5,6(s1)
   14134:	00840413          	addi	s0,s0,8
   14138:	fcf57ae3          	bgeu	a0,a5,1410c <enormlz+0x7c>
   1413c:	0a000913          	li	s2,160
   14140:	0140006f          	j	14154 <enormlz+0xc4>
   14144:	00140413          	addi	s0,s0,1
   14148:	d69ff0ef          	jal	ra,13eb0 <eshup1>
   1414c:	00894c63          	blt	s2,s0,14164 <enormlz+0xd4>
   14150:	0064d783          	lhu	a5,6(s1)
   14154:	01079793          	slli	a5,a5,0x10
   14158:	4107d793          	srai	a5,a5,0x10
   1415c:	00048513          	mv	a0,s1
   14160:	fe07d2e3          	bgez	a5,14144 <enormlz+0xb4>
   14164:	00c12083          	lw	ra,12(sp)
   14168:	00040513          	mv	a0,s0
   1416c:	00812403          	lw	s0,8(sp)
   14170:	00412483          	lw	s1,4(sp)
   14174:	00012903          	lw	s2,0(sp)
   14178:	01010113          	addi	sp,sp,16
   1417c:	00008067          	ret
   14180:	0ff00713          	li	a4,255
   14184:	00000413          	li	s0,0
   14188:	04f76063          	bltu	a4,a5,141c8 <enormlz+0x138>
   1418c:	f6f00913          	li	s2,-145
   14190:	0140006f          	j	141a4 <enormlz+0x114>
   14194:	fff40413          	addi	s0,s0,-1
   14198:	cc5ff0ef          	jal	ra,13e5c <eshdn1>
   1419c:	fd2404e3          	beq	s0,s2,14164 <enormlz+0xd4>
   141a0:	0044d783          	lhu	a5,4(s1)
   141a4:	00048513          	mv	a0,s1
   141a8:	fe0796e3          	bnez	a5,14194 <enormlz+0x104>
   141ac:	00c12083          	lw	ra,12(sp)
   141b0:	00040513          	mv	a0,s0
   141b4:	00812403          	lw	s0,8(sp)
   141b8:	00412483          	lw	s1,4(sp)
   141bc:	00012903          	lw	s2,0(sp)
   141c0:	01010113          	addi	sp,sp,16
   141c4:	00008067          	ret
   141c8:	00450713          	addi	a4,a0,4
   141cc:	01a50593          	addi	a1,a0,26
   141d0:	00000793          	li	a5,0
   141d4:	00075683          	lhu	a3,0(a4)
   141d8:	00270713          	addi	a4,a4,2
   141dc:	0086d613          	srli	a2,a3,0x8
   141e0:	00c7e7b3          	or	a5,a5,a2
   141e4:	00869693          	slli	a3,a3,0x8
   141e8:	fef71f23          	sh	a5,-2(a4)
   141ec:	01069793          	slli	a5,a3,0x10
   141f0:	0107d793          	srli	a5,a5,0x10
   141f4:	feb710e3          	bne	a4,a1,141d4 <enormlz+0x144>
   141f8:	0044d783          	lhu	a5,4(s1)
   141fc:	ff800413          	li	s0,-8
   14200:	f8dff06f          	j	1418c <enormlz+0xfc>

00014204 <eshift.part.0>:
   14204:	fe010113          	addi	sp,sp,-32
   14208:	00812c23          	sw	s0,24(sp)
   1420c:	00912a23          	sw	s1,20(sp)
   14210:	00112e23          	sw	ra,28(sp)
   14214:	01212823          	sw	s2,16(sp)
   14218:	01312623          	sw	s3,12(sp)
   1421c:	00058493          	mv	s1,a1
   14220:	00050413          	mv	s0,a0
   14224:	0a05c463          	bltz	a1,142cc <eshift.part.0+0xc8>
   14228:	00f00793          	li	a5,15
   1422c:	00058613          	mv	a2,a1
   14230:	00450513          	addi	a0,a0,4
   14234:	01840693          	addi	a3,s0,24
   14238:	00f00593          	li	a1,15
   1423c:	0297d463          	bge	a5,s1,14264 <eshift.part.0+0x60>
   14240:	00050793          	mv	a5,a0
   14244:	0027d703          	lhu	a4,2(a5)
   14248:	00278793          	addi	a5,a5,2
   1424c:	fee79f23          	sh	a4,-2(a5)
   14250:	fed79ae3          	bne	a5,a3,14244 <eshift.part.0+0x40>
   14254:	00041c23          	sh	zero,24(s0)
   14258:	ff060613          	addi	a2,a2,-16
   1425c:	fec5c2e3          	blt	a1,a2,14240 <eshift.part.0+0x3c>
   14260:	00f4f493          	andi	s1,s1,15
   14264:	00700793          	li	a5,7
   14268:	0297d863          	bge	a5,s1,14298 <eshift.part.0+0x94>
   1426c:	01840713          	addi	a4,s0,24
   14270:	00240593          	addi	a1,s0,2
   14274:	00000793          	li	a5,0
   14278:	00075683          	lhu	a3,0(a4)
   1427c:	ffe70713          	addi	a4,a4,-2
   14280:	00869613          	slli	a2,a3,0x8
   14284:	00c7e7b3          	or	a5,a5,a2
   14288:	00f71123          	sh	a5,2(a4)
   1428c:	0086d793          	srli	a5,a3,0x8
   14290:	feb714e3          	bne	a4,a1,14278 <eshift.part.0+0x74>
   14294:	ff848493          	addi	s1,s1,-8
   14298:	00048a63          	beqz	s1,142ac <eshift.part.0+0xa8>
   1429c:	fff48493          	addi	s1,s1,-1
   142a0:	00040513          	mv	a0,s0
   142a4:	c0dff0ef          	jal	ra,13eb0 <eshup1>
   142a8:	fe049ae3          	bnez	s1,1429c <eshift.part.0+0x98>
   142ac:	01c12083          	lw	ra,28(sp)
   142b0:	01812403          	lw	s0,24(sp)
   142b4:	01412483          	lw	s1,20(sp)
   142b8:	01012903          	lw	s2,16(sp)
   142bc:	00c12983          	lw	s3,12(sp)
   142c0:	00000513          	li	a0,0
   142c4:	02010113          	addi	sp,sp,32
   142c8:	00008067          	ret
   142cc:	ff100793          	li	a5,-15
   142d0:	40b00933          	neg	s2,a1
   142d4:	00000993          	li	s3,0
   142d8:	01850593          	addi	a1,a0,24
   142dc:	00450693          	addi	a3,a0,4
   142e0:	00f00613          	li	a2,15
   142e4:	0cf4d863          	bge	s1,a5,143b4 <eshift.part.0+0x1b0>
   142e8:	01845703          	lhu	a4,24(s0)
   142ec:	00058793          	mv	a5,a1
   142f0:	00e9e9b3          	or	s3,s3,a4
   142f4:	ffe7d703          	lhu	a4,-2(a5)
   142f8:	ffe78793          	addi	a5,a5,-2
   142fc:	00e79123          	sh	a4,2(a5)
   14300:	fed79ae3          	bne	a5,a3,142f4 <eshift.part.0+0xf0>
   14304:	00041223          	sh	zero,4(s0)
   14308:	ff090913          	addi	s2,s2,-16
   1430c:	fd264ee3          	blt	a2,s2,142e8 <eshift.part.0+0xe4>
   14310:	ff000913          	li	s2,-16
   14314:	ff100713          	li	a4,-15
   14318:	40990933          	sub	s2,s2,s1
   1431c:	00000793          	li	a5,0
   14320:	08e4c463          	blt	s1,a4,143a8 <eshift.part.0+0x1a4>
   14324:	00f90933          	add	s2,s2,a5
   14328:	00700793          	li	a5,7
   1432c:	0327de63          	bge	a5,s2,14368 <eshift.part.0+0x164>
   14330:	01844783          	lbu	a5,24(s0)
   14334:	01a40593          	addi	a1,s0,26
   14338:	00f9e9b3          	or	s3,s3,a5
   1433c:	00000793          	li	a5,0
   14340:	0006d703          	lhu	a4,0(a3)
   14344:	00268693          	addi	a3,a3,2
   14348:	00875613          	srli	a2,a4,0x8
   1434c:	00c7e7b3          	or	a5,a5,a2
   14350:	00871713          	slli	a4,a4,0x8
   14354:	fef69f23          	sh	a5,-2(a3)
   14358:	01071793          	slli	a5,a4,0x10
   1435c:	0107d793          	srli	a5,a5,0x10
   14360:	feb690e3          	bne	a3,a1,14340 <eshift.part.0+0x13c>
   14364:	ff890913          	addi	s2,s2,-8
   14368:	02090063          	beqz	s2,14388 <eshift.part.0+0x184>
   1436c:	01845783          	lhu	a5,24(s0)
   14370:	fff90913          	addi	s2,s2,-1
   14374:	00040513          	mv	a0,s0
   14378:	0017f793          	andi	a5,a5,1
   1437c:	00f9e9b3          	or	s3,s3,a5
   14380:	addff0ef          	jal	ra,13e5c <eshdn1>
   14384:	fe0914e3          	bnez	s2,1436c <eshift.part.0+0x168>
   14388:	01c12083          	lw	ra,28(sp)
   1438c:	01812403          	lw	s0,24(sp)
   14390:	01412483          	lw	s1,20(sp)
   14394:	01012903          	lw	s2,16(sp)
   14398:	01303533          	snez	a0,s3
   1439c:	00c12983          	lw	s3,12(sp)
   143a0:	02010113          	addi	sp,sp,32
   143a4:	00008067          	ret
   143a8:	ff097793          	andi	a5,s2,-16
   143ac:	40f007b3          	neg	a5,a5
   143b0:	f75ff06f          	j	14324 <eshift.part.0+0x120>
   143b4:	ff900793          	li	a5,-7
   143b8:	f6f4cce3          	blt	s1,a5,14330 <eshift.part.0+0x12c>
   143bc:	fb1ff06f          	j	1436c <eshift.part.0+0x168>

000143c0 <emovi>:
   143c0:	01255783          	lhu	a5,18(a0)
   143c4:	000086b7          	lui	a3,0x8
   143c8:	fff68693          	addi	a3,a3,-1 # 7fff <main-0x8095>
   143cc:	00f7d793          	srli	a5,a5,0xf
   143d0:	40f007b3          	neg	a5,a5
   143d4:	00f59023          	sh	a5,0(a1)
   143d8:	01255703          	lhu	a4,18(a0)
   143dc:	01050793          	addi	a5,a0,16
   143e0:	00d77733          	and	a4,a4,a3
   143e4:	00e59123          	sh	a4,2(a1)
   143e8:	02d70663          	beq	a4,a3,14414 <emovi+0x54>
   143ec:	00658713          	addi	a4,a1,6
   143f0:	00059223          	sh	zero,4(a1)
   143f4:	ffe50513          	addi	a0,a0,-2
   143f8:	0007d683          	lhu	a3,0(a5)
   143fc:	ffe78793          	addi	a5,a5,-2
   14400:	00270713          	addi	a4,a4,2
   14404:	fed71f23          	sh	a3,-2(a4)
   14408:	fea798e3          	bne	a5,a0,143f8 <emovi+0x38>
   1440c:	00059c23          	sh	zero,24(a1)
   14410:	00008067          	ret
   14414:	01255683          	lhu	a3,18(a0)
   14418:	00e6f6b3          	and	a3,a3,a4
   1441c:	00e69e63          	bne	a3,a4,14438 <emovi+0x78>
   14420:	01250613          	addi	a2,a0,18
   14424:	00050713          	mv	a4,a0
   14428:	00075683          	lhu	a3,0(a4)
   1442c:	00270713          	addi	a4,a4,2
   14430:	02069063          	bnez	a3,14450 <emovi+0x90>
   14434:	fec71ae3          	bne	a4,a2,14428 <emovi+0x68>
   14438:	00458793          	addi	a5,a1,4
   1443c:	01a58593          	addi	a1,a1,26
   14440:	00278793          	addi	a5,a5,2
   14444:	fe079f23          	sh	zero,-2(a5)
   14448:	feb79ce3          	bne	a5,a1,14440 <emovi+0x80>
   1444c:	00008067          	ret
   14450:	00658713          	addi	a4,a1,6
   14454:	00059223          	sh	zero,4(a1)
   14458:	ffc50513          	addi	a0,a0,-4
   1445c:	0007d683          	lhu	a3,0(a5)
   14460:	ffe78793          	addi	a5,a5,-2
   14464:	00270713          	addi	a4,a4,2
   14468:	fed71f23          	sh	a3,-2(a4)
   1446c:	fef518e3          	bne	a0,a5,1445c <emovi+0x9c>
   14470:	00008067          	ret

00014474 <ecmp>:
   14474:	01255783          	lhu	a5,18(a0)
   14478:	fb010113          	addi	sp,sp,-80
   1447c:	04812423          	sw	s0,72(sp)
   14480:	fff7c793          	not	a5,a5
   14484:	04112623          	sw	ra,76(sp)
   14488:	01179713          	slli	a4,a5,0x11
   1448c:	00058413          	mv	s0,a1
   14490:	00071e63          	bnez	a4,144ac <ecmp+0x38>
   14494:	01250693          	addi	a3,a0,18
   14498:	00050793          	mv	a5,a0
   1449c:	0007d703          	lhu	a4,0(a5)
   144a0:	00278793          	addi	a5,a5,2
   144a4:	08071c63          	bnez	a4,1453c <ecmp+0xc8>
   144a8:	fed79ae3          	bne	a5,a3,1449c <ecmp+0x28>
   144ac:	01245783          	lhu	a5,18(s0)
   144b0:	fff7c793          	not	a5,a5
   144b4:	01179713          	slli	a4,a5,0x11
   144b8:	06070063          	beqz	a4,14518 <ecmp+0xa4>
   144bc:	00810593          	addi	a1,sp,8
   144c0:	f01ff0ef          	jal	ra,143c0 <emovi>
   144c4:	02410593          	addi	a1,sp,36
   144c8:	00040513          	mv	a0,s0
   144cc:	ef5ff0ef          	jal	ra,143c0 <emovi>
   144d0:	00815583          	lhu	a1,8(sp)
   144d4:	02415503          	lhu	a0,36(sp)
   144d8:	06b50c63          	beq	a0,a1,14550 <ecmp+0xdc>
   144dc:	00a10793          	addi	a5,sp,10
   144e0:	02610713          	addi	a4,sp,38
   144e4:	02010613          	addi	a2,sp,32
   144e8:	0007d683          	lhu	a3,0(a5)
   144ec:	00278793          	addi	a5,a5,2
   144f0:	0a069863          	bnez	a3,145a0 <ecmp+0x12c>
   144f4:	00075683          	lhu	a3,0(a4)
   144f8:	00270713          	addi	a4,a4,2
   144fc:	0a069263          	bnez	a3,145a0 <ecmp+0x12c>
   14500:	fef614e3          	bne	a2,a5,144e8 <ecmp+0x74>
   14504:	00000513          	li	a0,0
   14508:	04c12083          	lw	ra,76(sp)
   1450c:	04812403          	lw	s0,72(sp)
   14510:	05010113          	addi	sp,sp,80
   14514:	00008067          	ret
   14518:	00040793          	mv	a5,s0
   1451c:	0007d703          	lhu	a4,0(a5)
   14520:	01240693          	addi	a3,s0,18
   14524:	00278793          	addi	a5,a5,2
   14528:	00071a63          	bnez	a4,1453c <ecmp+0xc8>
   1452c:	f8d788e3          	beq	a5,a3,144bc <ecmp+0x48>
   14530:	0007d703          	lhu	a4,0(a5)
   14534:	00278793          	addi	a5,a5,2
   14538:	fe070ae3          	beqz	a4,1452c <ecmp+0xb8>
   1453c:	04c12083          	lw	ra,76(sp)
   14540:	04812403          	lw	s0,72(sp)
   14544:	ffe00513          	li	a0,-2
   14548:	05010113          	addi	sp,sp,80
   1454c:	00008067          	ret
   14550:	00815603          	lhu	a2,8(sp)
   14554:	02415683          	lhu	a3,36(sp)
   14558:	00a03533          	snez	a0,a0
   1455c:	02410713          	addi	a4,sp,36
   14560:	00810793          	addi	a5,sp,8
   14564:	40a00533          	neg	a0,a0
   14568:	00156513          	ori	a0,a0,1
   1456c:	02010593          	addi	a1,sp,32
   14570:	00278793          	addi	a5,a5,2
   14574:	00270713          	addi	a4,a4,2
   14578:	00d61e63          	bne	a2,a3,14594 <ecmp+0x120>
   1457c:	f8b784e3          	beq	a5,a1,14504 <ecmp+0x90>
   14580:	0007d603          	lhu	a2,0(a5)
   14584:	00075683          	lhu	a3,0(a4)
   14588:	00278793          	addi	a5,a5,2
   1458c:	00270713          	addi	a4,a4,2
   14590:	fed606e3          	beq	a2,a3,1457c <ecmp+0x108>
   14594:	f6c6eae3          	bltu	a3,a2,14508 <ecmp+0x94>
   14598:	40a00533          	neg	a0,a0
   1459c:	f6dff06f          	j	14508 <ecmp+0x94>
   145a0:	00059c63          	bnez	a1,145b8 <ecmp+0x144>
   145a4:	04c12083          	lw	ra,76(sp)
   145a8:	04812403          	lw	s0,72(sp)
   145ac:	00100513          	li	a0,1
   145b0:	05010113          	addi	sp,sp,80
   145b4:	00008067          	ret
   145b8:	fff00513          	li	a0,-1
   145bc:	f4dff06f          	j	14508 <ecmp+0x94>

000145c0 <emdnorm>:
   145c0:	fe010113          	addi	sp,sp,-32
   145c4:	00812c23          	sw	s0,24(sp)
   145c8:	00912a23          	sw	s1,20(sp)
   145cc:	01212823          	sw	s2,16(sp)
   145d0:	01312623          	sw	s3,12(sp)
   145d4:	01412423          	sw	s4,8(sp)
   145d8:	01512223          	sw	s5,4(sp)
   145dc:	00068913          	mv	s2,a3
   145e0:	00078413          	mv	s0,a5
   145e4:	00112e23          	sw	ra,28(sp)
   145e8:	00050493          	mv	s1,a0
   145ec:	00058993          	mv	s3,a1
   145f0:	00060a13          	mv	s4,a2
   145f4:	00070a93          	mv	s5,a4
   145f8:	a99ff0ef          	jal	ra,14090 <enormlz>
   145fc:	09000793          	li	a5,144
   14600:	40a90933          	sub	s2,s2,a0
   14604:	16a7da63          	bge	a5,a0,14778 <emdnorm+0x1b8>
   14608:	000087b7          	lui	a5,0x8
   1460c:	ffe78793          	addi	a5,a5,-2 # 7ffe <main-0x8096>
   14610:	2b27da63          	bge	a5,s2,148c4 <emdnorm+0x304>
   14614:	200a8c63          	beqz	s5,1482c <emdnorm+0x26c>
   14618:	00442a83          	lw	s5,4(s0)
   1461c:	00042783          	lw	a5,0(s0)
   14620:	26fa8a63          	beq	s5,a5,14894 <emdnorm+0x2d4>
   14624:	01a40713          	addi	a4,s0,26
   14628:	03440793          	addi	a5,s0,52
   1462c:	00270713          	addi	a4,a4,2
   14630:	fe071f23          	sh	zero,-2(a4)
   14634:	fee79ce3          	bne	a5,a4,1462c <emdnorm+0x6c>
   14638:	03800793          	li	a5,56
   1463c:	36fa8863          	beq	s5,a5,149ac <emdnorm+0x3ec>
   14640:	1957dc63          	bge	a5,s5,147d8 <emdnorm+0x218>
   14644:	04000793          	li	a5,64
   14648:	28fa8a63          	beq	s5,a5,148dc <emdnorm+0x31c>
   1464c:	07100793          	li	a5,113
   14650:	38fa9c63          	bne	s5,a5,149e8 <emdnorm+0x428>
   14654:	400087b7          	lui	a5,0x40008
   14658:	00a00693          	li	a3,10
   1465c:	ffff8737          	lui	a4,0xffff8
   14660:	fff78793          	addi	a5,a5,-1 # 40007fff <__BSS_END__+0x3ffe0517>
   14664:	00d42423          	sw	a3,8(s0)
   14668:	00f42a23          	sw	a5,20(s0)
   1466c:	00e41c23          	sh	a4,24(s0)
   14670:	00d42623          	sw	a3,12(s0)
   14674:	02e41723          	sh	a4,46(s0)
   14678:	01542023          	sw	s5,0(s0)
   1467c:	21205263          	blez	s2,14880 <emdnorm+0x2c0>
   14680:	0144d683          	lhu	a3,20(s1)
   14684:	01448613          	addi	a2,s1,20
   14688:	00b00793          	li	a5,11
   1468c:	01169693          	slli	a3,a3,0x11
   14690:	0116d693          	srli	a3,a3,0x11
   14694:	00179793          	slli	a5,a5,0x1
   14698:	00f487b3          	add	a5,s1,a5
   1469c:	01a48593          	addi	a1,s1,26
   146a0:	0007d703          	lhu	a4,0(a5)
   146a4:	00070463          	beqz	a4,146ac <emdnorm+0xec>
   146a8:	0016e693          	ori	a3,a3,1
   146ac:	00079023          	sh	zero,0(a5)
   146b0:	00278793          	addi	a5,a5,2
   146b4:	feb796e3          	bne	a5,a1,146a0 <emdnorm+0xe0>
   146b8:	00065703          	lhu	a4,0(a2)
   146bc:	01445583          	lhu	a1,20(s0)
   146c0:	fff5c593          	not	a1,a1
   146c4:	00b77733          	and	a4,a4,a1
   146c8:	00e61023          	sh	a4,0(a2)
   146cc:	01645783          	lhu	a5,22(s0)
   146d0:	00d7f733          	and	a4,a5,a3
   146d4:	06070063          	beqz	a4,14734 <emdnorm+0x174>
   146d8:	02d79263          	bne	a5,a3,146fc <emdnorm+0x13c>
   146dc:	2c099463          	bnez	s3,149a4 <emdnorm+0x3e4>
   146e0:	00c42783          	lw	a5,12(s0)
   146e4:	01845703          	lhu	a4,24(s0)
   146e8:	00179793          	slli	a5,a5,0x1
   146ec:	00f487b3          	add	a5,s1,a5
   146f0:	0007d783          	lhu	a5,0(a5)
   146f4:	00e7f7b3          	and	a5,a5,a4
   146f8:	02078e63          	beqz	a5,14734 <emdnorm+0x174>
   146fc:	03240793          	addi	a5,s0,50
   14700:	01848613          	addi	a2,s1,24
   14704:	00248593          	addi	a1,s1,2
   14708:	00000513          	li	a0,0
   1470c:	0007d703          	lhu	a4,0(a5)
   14710:	00065683          	lhu	a3,0(a2)
   14714:	ffe60613          	addi	a2,a2,-2
   14718:	ffe78793          	addi	a5,a5,-2
   1471c:	00d70733          	add	a4,a4,a3
   14720:	00a70733          	add	a4,a4,a0
   14724:	01075513          	srli	a0,a4,0x10
   14728:	00e61123          	sh	a4,2(a2)
   1472c:	00157513          	andi	a0,a0,1
   14730:	fcc59ee3          	bne	a1,a2,1470c <emdnorm+0x14c>
   14734:	23205863          	blez	s2,14964 <emdnorm+0x3a4>
   14738:	0044d783          	lhu	a5,4(s1)
   1473c:	20079463          	bnez	a5,14944 <emdnorm+0x384>
   14740:	000087b7          	lui	a5,0x8
   14744:	00049c23          	sh	zero,24(s1)
   14748:	ffe78793          	addi	a5,a5,-2 # 7ffe <main-0x8096>
   1474c:	0f27c263          	blt	a5,s2,14830 <emdnorm+0x270>
   14750:	01249123          	sh	s2,2(s1)
   14754:	01c12083          	lw	ra,28(sp)
   14758:	01812403          	lw	s0,24(sp)
   1475c:	01412483          	lw	s1,20(sp)
   14760:	01012903          	lw	s2,16(sp)
   14764:	00c12983          	lw	s3,12(sp)
   14768:	00812a03          	lw	s4,8(sp)
   1476c:	00412a83          	lw	s5,4(sp)
   14770:	02010113          	addi	sp,sp,32
   14774:	00008067          	ret
   14778:	04094063          	bltz	s2,147b8 <emdnorm+0x1f8>
   1477c:	fc0a82e3          	beqz	s5,14740 <emdnorm+0x180>
   14780:	00442a83          	lw	s5,4(s0)
   14784:	00042783          	lw	a5,0(s0)
   14788:	e8fa9ee3          	bne	s5,a5,14624 <emdnorm+0x64>
   1478c:	2d204063          	bgtz	s2,14a4c <emdnorm+0x48c>
   14790:	09000713          	li	a4,144
   14794:	2ce79063          	bne	a5,a4,14a54 <emdnorm+0x494>
   14798:	00842603          	lw	a2,8(s0)
   1479c:	01445583          	lhu	a1,20(s0)
   147a0:	09000a93          	li	s5,144
   147a4:	00161613          	slli	a2,a2,0x1
   147a8:	00c48633          	add	a2,s1,a2
   147ac:	00065703          	lhu	a4,0(a2)
   147b0:	00b776b3          	and	a3,a4,a1
   147b4:	f0dff06f          	j	146c0 <emdnorm+0x100>
   147b8:	f7000793          	li	a5,-144
   147bc:	16f95063          	bge	s2,a5,1491c <emdnorm+0x35c>
   147c0:	00248793          	addi	a5,s1,2
   147c4:	01a48493          	addi	s1,s1,26
   147c8:	00278793          	addi	a5,a5,2
   147cc:	fe079f23          	sh	zero,-2(a5)
   147d0:	fef49ce3          	bne	s1,a5,147c8 <emdnorm+0x208>
   147d4:	f81ff06f          	j	14754 <emdnorm+0x194>
   147d8:	01800793          	li	a5,24
   147dc:	06fa8c63          	beq	s5,a5,14854 <emdnorm+0x294>
   147e0:	03500793          	li	a5,53
   147e4:	20fa9263          	bne	s5,a5,149e8 <emdnorm+0x428>
   147e8:	000017b7          	lui	a5,0x1
   147ec:	04000737          	lui	a4,0x4000
   147f0:	00600693          	li	a3,6
   147f4:	80078793          	addi	a5,a5,-2048 # 800 <main-0xf894>
   147f8:	7ff70713          	addi	a4,a4,2047 # 40007ff <__BSS_END__+0x3fd8d17>
   147fc:	00d42423          	sw	a3,8(s0)
   14800:	00e42a23          	sw	a4,20(s0)
   14804:	00f41c23          	sh	a5,24(s0)
   14808:	00d42623          	sw	a3,12(s0)
   1480c:	02f41323          	sh	a5,38(s0)
   14810:	01542023          	sw	s5,0(s0)
   14814:	07205663          	blez	s2,14880 <emdnorm+0x2c0>
   14818:	00c4d683          	lhu	a3,12(s1)
   1481c:	00c48613          	addi	a2,s1,12
   14820:	00700793          	li	a5,7
   14824:	7ff6f693          	andi	a3,a3,2047
   14828:	e6dff06f          	j	14694 <emdnorm+0xd4>
   1482c:	00049c23          	sh	zero,24(s1)
   14830:	ffff87b7          	lui	a5,0xffff8
   14834:	fff7c793          	not	a5,a5
   14838:	00f49123          	sh	a5,2(s1)
   1483c:	00448793          	addi	a5,s1,4
   14840:	01848493          	addi	s1,s1,24
   14844:	00079023          	sh	zero,0(a5) # ffff8000 <__BSS_END__+0xfffd0518>
   14848:	00278793          	addi	a5,a5,2
   1484c:	fef49ce3          	bne	s1,a5,14844 <emdnorm+0x284>
   14850:	f05ff06f          	j	14754 <emdnorm+0x194>
   14854:	008007b7          	lui	a5,0x800
   14858:	00400693          	li	a3,4
   1485c:	10000713          	li	a4,256
   14860:	0ff78793          	addi	a5,a5,255 # 8000ff <__BSS_END__+0x7d8617>
   14864:	00d42423          	sw	a3,8(s0)
   14868:	00f42a23          	sw	a5,20(s0)
   1486c:	00e41c23          	sh	a4,24(s0)
   14870:	00d42623          	sw	a3,12(s0)
   14874:	02e41123          	sh	a4,34(s0)
   14878:	01542023          	sw	s5,0(s0)
   1487c:	1b204a63          	bgtz	s2,14a30 <emdnorm+0x470>
   14880:	0184d783          	lhu	a5,24(s1)
   14884:	00048513          	mv	a0,s1
   14888:	0017f793          	andi	a5,a5,1
   1488c:	00f9e9b3          	or	s3,s3,a5
   14890:	dccff0ef          	jal	ra,13e5c <eshdn1>
   14894:	00842783          	lw	a5,8(s0)
   14898:	01445583          	lhu	a1,20(s0)
   1489c:	08f00513          	li	a0,143
   148a0:	00179613          	slli	a2,a5,0x1
   148a4:	00c48633          	add	a2,s1,a2
   148a8:	00065703          	lhu	a4,0(a2)
   148ac:	00b776b3          	and	a3,a4,a1
   148b0:	e15548e3          	blt	a0,s5,146c0 <emdnorm+0x100>
   148b4:	00178793          	addi	a5,a5,1
   148b8:	00c00513          	li	a0,12
   148bc:	dcf55ce3          	bge	a0,a5,14694 <emdnorm+0xd4>
   148c0:	e01ff06f          	j	146c0 <emdnorm+0x100>
   148c4:	00248793          	addi	a5,s1,2
   148c8:	01a48493          	addi	s1,s1,26
   148cc:	00278793          	addi	a5,a5,2
   148d0:	fe079f23          	sh	zero,-2(a5)
   148d4:	fe979ce3          	bne	a5,s1,148cc <emdnorm+0x30c>
   148d8:	e7dff06f          	j	14754 <emdnorm+0x194>
   148dc:	00700793          	li	a5,7
   148e0:	00f42423          	sw	a5,8(s0)
   148e4:	800107b7          	lui	a5,0x80010
   148e8:	fff78793          	addi	a5,a5,-1 # 8000ffff <__BSS_END__+0x7ffe8517>
   148ec:	00100713          	li	a4,1
   148f0:	00f42a23          	sw	a5,20(s0)
   148f4:	00600793          	li	a5,6
   148f8:	00e41c23          	sh	a4,24(s0)
   148fc:	00f42623          	sw	a5,12(s0)
   14900:	02e41323          	sh	a4,38(s0)
   14904:	01542023          	sw	s5,0(s0)
   14908:	f7205ce3          	blez	s2,14880 <emdnorm+0x2c0>
   1490c:	00e4d683          	lhu	a3,14(s1)
   14910:	00e48613          	addi	a2,s1,14
   14914:	00800793          	li	a5,8
   14918:	d7dff06f          	j	14694 <emdnorm+0xd4>
   1491c:	00090593          	mv	a1,s2
   14920:	00048513          	mv	a0,s1
   14924:	8e1ff0ef          	jal	ra,14204 <eshift.part.0>
   14928:	0e050a63          	beqz	a0,14a1c <emdnorm+0x45c>
   1492c:	100a8a63          	beqz	s5,14a40 <emdnorm+0x480>
   14930:	00442a83          	lw	s5,4(s0)
   14934:	00042783          	lw	a5,0(s0)
   14938:	00100993          	li	s3,1
   1493c:	cefa94e3          	bne	s5,a5,14624 <emdnorm+0x64>
   14940:	e51ff06f          	j	14790 <emdnorm+0x1d0>
   14944:	00048513          	mv	a0,s1
   14948:	d14ff0ef          	jal	ra,13e5c <eshdn1>
   1494c:	000087b7          	lui	a5,0x8
   14950:	00190913          	addi	s2,s2,1
   14954:	00049c23          	sh	zero,24(s1)
   14958:	ffe78793          	addi	a5,a5,-2 # 7ffe <main-0x8096>
   1495c:	ed27cae3          	blt	a5,s2,14830 <emdnorm+0x270>
   14960:	df1ff06f          	j	14750 <emdnorm+0x190>
   14964:	09000793          	li	a5,144
   14968:	02fa8263          	beq	s5,a5,1498c <emdnorm+0x3cc>
   1496c:	00048513          	mv	a0,s1
   14970:	d40ff0ef          	jal	ra,13eb0 <eshup1>
   14974:	0044d783          	lhu	a5,4(s1)
   14978:	00079e63          	bnez	a5,14994 <emdnorm+0x3d4>
   1497c:	00049c23          	sh	zero,24(s1)
   14980:	dc0958e3          	bgez	s2,14750 <emdnorm+0x190>
   14984:	00049123          	sh	zero,2(s1)
   14988:	dcdff06f          	j	14754 <emdnorm+0x194>
   1498c:	0044d783          	lhu	a5,4(s1)
   14990:	fe0786e3          	beqz	a5,1497c <emdnorm+0x3bc>
   14994:	00048513          	mv	a0,s1
   14998:	cc4ff0ef          	jal	ra,13e5c <eshdn1>
   1499c:	00190913          	addi	s2,s2,1
   149a0:	fddff06f          	j	1497c <emdnorm+0x3bc>
   149a4:	d40a0ce3          	beqz	s4,146fc <emdnorm+0x13c>
   149a8:	d8dff06f          	j	14734 <emdnorm+0x174>
   149ac:	008007b7          	lui	a5,0x800
   149b0:	00600693          	li	a3,6
   149b4:	10000713          	li	a4,256
   149b8:	0ff78793          	addi	a5,a5,255 # 8000ff <__BSS_END__+0x7d8617>
   149bc:	00d42423          	sw	a3,8(s0)
   149c0:	00f42a23          	sw	a5,20(s0)
   149c4:	00e41c23          	sh	a4,24(s0)
   149c8:	00d42623          	sw	a3,12(s0)
   149cc:	02e41323          	sh	a4,38(s0)
   149d0:	01542023          	sw	s5,0(s0)
   149d4:	eb2056e3          	blez	s2,14880 <emdnorm+0x2c0>
   149d8:	00c4c683          	lbu	a3,12(s1)
   149dc:	00c48613          	addi	a2,s1,12
   149e0:	00700793          	li	a5,7
   149e4:	cb1ff06f          	j	14694 <emdnorm+0xd4>
   149e8:	00c00793          	li	a5,12
   149ec:	00f42423          	sw	a5,8(s0)
   149f0:	800107b7          	lui	a5,0x80010
   149f4:	fff78793          	addi	a5,a5,-1 # 8000ffff <__BSS_END__+0x7ffe8517>
   149f8:	00100713          	li	a4,1
   149fc:	00f42a23          	sw	a5,20(s0)
   14a00:	00b00793          	li	a5,11
   14a04:	00f42623          	sw	a5,12(s0)
   14a08:	00e41c23          	sh	a4,24(s0)
   14a0c:	02e41823          	sh	a4,48(s0)
   14a10:	01542023          	sw	s5,0(s0)
   14a14:	000a8793          	mv	a5,s5
   14a18:	d75ff06f          	j	1478c <emdnorm+0x1cc>
   14a1c:	020a8263          	beqz	s5,14a40 <emdnorm+0x480>
   14a20:	00442a83          	lw	s5,4(s0)
   14a24:	00042783          	lw	a5,0(s0)
   14a28:	befa9ee3          	bne	s5,a5,14624 <emdnorm+0x64>
   14a2c:	d65ff06f          	j	14790 <emdnorm+0x1d0>
   14a30:	0084c683          	lbu	a3,8(s1)
   14a34:	00848613          	addi	a2,s1,8
   14a38:	00500793          	li	a5,5
   14a3c:	c59ff06f          	j	14694 <emdnorm+0xd4>
   14a40:	00049c23          	sh	zero,24(s1)
   14a44:	00049123          	sh	zero,2(s1)
   14a48:	d0dff06f          	j	14754 <emdnorm+0x194>
   14a4c:	00078a93          	mv	s5,a5
   14a50:	e45ff06f          	j	14894 <emdnorm+0x2d4>
   14a54:	00078a93          	mv	s5,a5
   14a58:	e29ff06f          	j	14880 <emdnorm+0x2c0>

00014a5c <eiremain>:
   14a5c:	fd010113          	addi	sp,sp,-48
   14a60:	03212023          	sw	s2,32(sp)
   14a64:	01312e23          	sw	s3,28(sp)
   14a68:	00058913          	mv	s2,a1
   14a6c:	00255983          	lhu	s3,2(a0)
   14a70:	02112623          	sw	ra,44(sp)
   14a74:	02812423          	sw	s0,40(sp)
   14a78:	02912223          	sw	s1,36(sp)
   14a7c:	01412c23          	sw	s4,24(sp)
   14a80:	00060493          	mv	s1,a2
   14a84:	01712623          	sw	s7,12(sp)
   14a88:	01512a23          	sw	s5,20(sp)
   14a8c:	01612823          	sw	s6,16(sp)
   14a90:	01812423          	sw	s8,8(sp)
   14a94:	01912223          	sw	s9,4(sp)
   14a98:	01a12023          	sw	s10,0(sp)
   14a9c:	00050b93          	mv	s7,a0
   14aa0:	df0ff0ef          	jal	ra,14090 <enormlz>
   14aa4:	00295403          	lhu	s0,2(s2)
   14aa8:	00050793          	mv	a5,a0
   14aac:	00090513          	mv	a0,s2
   14ab0:	40f989b3          	sub	s3,s3,a5
   14ab4:	03448a13          	addi	s4,s1,52
   14ab8:	dd8ff0ef          	jal	ra,14090 <enormlz>
   14abc:	40a40433          	sub	s0,s0,a0
   14ac0:	04e48713          	addi	a4,s1,78
   14ac4:	000a0793          	mv	a5,s4
   14ac8:	00278793          	addi	a5,a5,2
   14acc:	fe079f23          	sh	zero,-2(a5)
   14ad0:	fee79ce3          	bne	a5,a4,14ac8 <eiremain+0x6c>
   14ad4:	09344863          	blt	s0,s3,14b64 <eiremain+0x108>
   14ad8:	004b8b13          	addi	s6,s7,4
   14adc:	00490a93          	addi	s5,s2,4
   14ae0:	01ab8c13          	addi	s8,s7,26
   14ae4:	00290d13          	addi	s10,s2,2
   14ae8:	000a8713          	mv	a4,s5
   14aec:	000b0793          	mv	a5,s6
   14af0:	0007d603          	lhu	a2,0(a5)
   14af4:	00075683          	lhu	a3,0(a4)
   14af8:	00278793          	addi	a5,a5,2
   14afc:	00270713          	addi	a4,a4,2
   14b00:	0ad61a63          	bne	a2,a3,14bb4 <eiremain+0x158>
   14b04:	fefc16e3          	bne	s8,a5,14af0 <eiremain+0x94>
   14b08:	018b8613          	addi	a2,s7,24
   14b0c:	01890713          	addi	a4,s2,24
   14b10:	00000693          	li	a3,0
   14b14:	00075783          	lhu	a5,0(a4)
   14b18:	00065583          	lhu	a1,0(a2)
   14b1c:	ffe70713          	addi	a4,a4,-2
   14b20:	ffe60613          	addi	a2,a2,-2
   14b24:	40b787b3          	sub	a5,a5,a1
   14b28:	40d787b3          	sub	a5,a5,a3
   14b2c:	0107d693          	srli	a3,a5,0x10
   14b30:	00f71123          	sh	a5,2(a4)
   14b34:	0016f693          	andi	a3,a3,1
   14b38:	fda71ee3          	bne	a4,s10,14b14 <eiremain+0xb8>
   14b3c:	00100c93          	li	s9,1
   14b40:	000a0513          	mv	a0,s4
   14b44:	b6cff0ef          	jal	ra,13eb0 <eshup1>
   14b48:	04c4d783          	lhu	a5,76(s1)
   14b4c:	fff40413          	addi	s0,s0,-1
   14b50:	00090513          	mv	a0,s2
   14b54:	00fce7b3          	or	a5,s9,a5
   14b58:	04f49623          	sh	a5,76(s1)
   14b5c:	b54ff0ef          	jal	ra,13eb0 <eshup1>
   14b60:	f93454e3          	bge	s0,s3,14ae8 <eiremain+0x8c>
   14b64:	00040693          	mv	a3,s0
   14b68:	02812403          	lw	s0,40(sp)
   14b6c:	02c12083          	lw	ra,44(sp)
   14b70:	01c12983          	lw	s3,28(sp)
   14b74:	01812a03          	lw	s4,24(sp)
   14b78:	01412a83          	lw	s5,20(sp)
   14b7c:	01012b03          	lw	s6,16(sp)
   14b80:	00c12b83          	lw	s7,12(sp)
   14b84:	00812c03          	lw	s8,8(sp)
   14b88:	00412c83          	lw	s9,4(sp)
   14b8c:	00012d03          	lw	s10,0(sp)
   14b90:	00048793          	mv	a5,s1
   14b94:	00090513          	mv	a0,s2
   14b98:	02412483          	lw	s1,36(sp)
   14b9c:	02012903          	lw	s2,32(sp)
   14ba0:	00000713          	li	a4,0
   14ba4:	00000613          	li	a2,0
   14ba8:	00000593          	li	a1,0
   14bac:	03010113          	addi	sp,sp,48
   14bb0:	a11ff06f          	j	145c0 <emdnorm>
   14bb4:	00000c93          	li	s9,0
   14bb8:	f8c6e4e3          	bltu	a3,a2,14b40 <eiremain+0xe4>
   14bbc:	f4dff06f          	j	14b08 <eiremain+0xac>

00014bc0 <e113toe.isra.0>:
   14bc0:	fd010113          	addi	sp,sp,-48
   14bc4:	02812423          	sw	s0,40(sp)
   14bc8:	02112623          	sw	ra,44(sp)
   14bcc:	00058413          	mv	s0,a1
   14bd0:	00410793          	addi	a5,sp,4
   14bd4:	01e10713          	addi	a4,sp,30
   14bd8:	00278793          	addi	a5,a5,2
   14bdc:	fe079f23          	sh	zero,-2(a5)
   14be0:	fee79ce3          	bne	a5,a4,14bd8 <e113toe.isra.0+0x18>
   14be4:	00e55603          	lhu	a2,14(a0)
   14be8:	000087b7          	lui	a5,0x8
   14bec:	fff78793          	addi	a5,a5,-1 # 7fff <main-0x8095>
   14bf0:	00f65713          	srli	a4,a2,0xf
   14bf4:	40e00733          	neg	a4,a4
   14bf8:	00e11223          	sh	a4,4(sp)
   14bfc:	00f67633          	and	a2,a2,a5
   14c00:	06f60063          	beq	a2,a5,14c60 <e113toe.isra.0+0xa0>
   14c04:	00e50793          	addi	a5,a0,14
   14c08:	00c11323          	sh	a2,6(sp)
   14c0c:	00a10713          	addi	a4,sp,10
   14c10:	ffe7d683          	lhu	a3,-2(a5)
   14c14:	ffe78793          	addi	a5,a5,-2
   14c18:	00270713          	addi	a4,a4,2
   14c1c:	fed71f23          	sh	a3,-2(a4)
   14c20:	fef518e3          	bne	a0,a5,14c10 <e113toe.isra.0+0x50>
   14c24:	02061263          	bnez	a2,14c48 <e113toe.isra.0+0x88>
   14c28:	00011423          	sh	zero,8(sp)
   14c2c:	00040593          	mv	a1,s0
   14c30:	00410513          	addi	a0,sp,4
   14c34:	ba0ff0ef          	jal	ra,13fd4 <emovo.constprop.0>
   14c38:	02c12083          	lw	ra,44(sp)
   14c3c:	02812403          	lw	s0,40(sp)
   14c40:	03010113          	addi	sp,sp,48
   14c44:	00008067          	ret
   14c48:	00100793          	li	a5,1
   14c4c:	fff00593          	li	a1,-1
   14c50:	00410513          	addi	a0,sp,4
   14c54:	00f11423          	sh	a5,8(sp)
   14c58:	dacff0ef          	jal	ra,14204 <eshift.part.0>
   14c5c:	fd1ff06f          	j	14c2c <e113toe.isra.0+0x6c>
   14c60:	00050793          	mv	a5,a0
   14c64:	00e50693          	addi	a3,a0,14
   14c68:	0007d703          	lhu	a4,0(a5)
   14c6c:	00278793          	addi	a5,a5,2
   14c70:	06071c63          	bnez	a4,14ce8 <e113toe.isra.0+0x128>
   14c74:	fed79ae3          	bne	a5,a3,14c68 <e113toe.isra.0+0xa8>
   14c78:	01440713          	addi	a4,s0,20
   14c7c:	00040793          	mv	a5,s0
   14c80:	00278793          	addi	a5,a5,2
   14c84:	fe079f23          	sh	zero,-2(a5)
   14c88:	fee79ce3          	bne	a5,a4,14c80 <e113toe.isra.0+0xc0>
   14c8c:	01240713          	addi	a4,s0,18
   14c90:	00040793          	mv	a5,s0
   14c94:	00278793          	addi	a5,a5,2
   14c98:	fe079f23          	sh	zero,-2(a5)
   14c9c:	fee79ce3          	bne	a5,a4,14c94 <e113toe.isra.0+0xd4>
   14ca0:	01245783          	lhu	a5,18(s0)
   14ca4:	000086b7          	lui	a3,0x8
   14ca8:	fff68693          	addi	a3,a3,-1 # 7fff <main-0x8095>
   14cac:	00d7e7b3          	or	a5,a5,a3
   14cb0:	01079793          	slli	a5,a5,0x10
   14cb4:	0107d793          	srli	a5,a5,0x10
   14cb8:	00f41923          	sh	a5,18(s0)
   14cbc:	00e51683          	lh	a3,14(a0)
   14cc0:	f606dce3          	bgez	a3,14c38 <e113toe.isra.0+0x78>
   14cc4:	00040693          	mv	a3,s0
   14cc8:	0006d603          	lhu	a2,0(a3)
   14ccc:	00268693          	addi	a3,a3,2
   14cd0:	f60614e3          	bnez	a2,14c38 <e113toe.isra.0+0x78>
   14cd4:	fee69ae3          	bne	a3,a4,14cc8 <e113toe.isra.0+0x108>
   14cd8:	ffff8737          	lui	a4,0xffff8
   14cdc:	00e7c7b3          	xor	a5,a5,a4
   14ce0:	00f41923          	sh	a5,18(s0)
   14ce4:	f55ff06f          	j	14c38 <e113toe.isra.0+0x78>
   14ce8:	01040713          	addi	a4,s0,16
   14cec:	00040793          	mv	a5,s0
   14cf0:	00278793          	addi	a5,a5,2
   14cf4:	fe079f23          	sh	zero,-2(a5)
   14cf8:	fee79ce3          	bne	a5,a4,14cf0 <e113toe.isra.0+0x130>
   14cfc:	ffffc7b7          	lui	a5,0xffffc
   14d00:	00f41823          	sh	a5,16(s0)
   14d04:	ffff87b7          	lui	a5,0xffff8
   14d08:	fff7c793          	not	a5,a5
   14d0c:	00f41923          	sh	a5,18(s0)
   14d10:	f29ff06f          	j	14c38 <e113toe.isra.0+0x78>

00014d14 <ediv>:
   14d14:	01255783          	lhu	a5,18(a0)
   14d18:	f5010113          	addi	sp,sp,-176
   14d1c:	0a812423          	sw	s0,168(sp)
   14d20:	fff7c793          	not	a5,a5
   14d24:	0a912223          	sw	s1,164(sp)
   14d28:	0b212023          	sw	s2,160(sp)
   14d2c:	09312e23          	sw	s3,156(sp)
   14d30:	0a112623          	sw	ra,172(sp)
   14d34:	09412c23          	sw	s4,152(sp)
   14d38:	09512a23          	sw	s5,148(sp)
   14d3c:	09612823          	sw	s6,144(sp)
   14d40:	09712623          	sw	s7,140(sp)
   14d44:	09812423          	sw	s8,136(sp)
   14d48:	09912223          	sw	s9,132(sp)
   14d4c:	09a12023          	sw	s10,128(sp)
   14d50:	07b12e23          	sw	s11,124(sp)
   14d54:	01179713          	slli	a4,a5,0x11
   14d58:	00050493          	mv	s1,a0
   14d5c:	00058993          	mv	s3,a1
   14d60:	00060413          	mv	s0,a2
   14d64:	00068913          	mv	s2,a3
   14d68:	00071e63          	bnez	a4,14d84 <ediv+0x70>
   14d6c:	01250693          	addi	a3,a0,18
   14d70:	00050793          	mv	a5,a0
   14d74:	0007d703          	lhu	a4,0(a5) # ffff8000 <__BSS_END__+0xfffd0518>
   14d78:	00278793          	addi	a5,a5,2
   14d7c:	0e071e63          	bnez	a4,14e78 <ediv+0x164>
   14d80:	fed79ae3          	bne	a5,a3,14d74 <ediv+0x60>
   14d84:	0129d783          	lhu	a5,18(s3)
   14d88:	fff7c793          	not	a5,a5
   14d8c:	01179713          	slli	a4,a5,0x11
   14d90:	00071e63          	bnez	a4,14dac <ediv+0x98>
   14d94:	01298693          	addi	a3,s3,18
   14d98:	00098793          	mv	a5,s3
   14d9c:	0007d703          	lhu	a4,0(a5)
   14da0:	00278793          	addi	a5,a5,2
   14da4:	0e071863          	bnez	a4,14e94 <ediv+0x180>
   14da8:	fed79ae3          	bne	a5,a3,14d9c <ediv+0x88>
   14dac:	00011597          	auipc	a1,0x11
   14db0:	12c58593          	addi	a1,a1,300 # 25ed8 <ezero>
   14db4:	00048513          	mv	a0,s1
   14db8:	ebcff0ef          	jal	ra,14474 <ecmp>
   14dbc:	18050a63          	beqz	a0,14f50 <ediv+0x23c>
   14dc0:	0124d603          	lhu	a2,18(s1)
   14dc4:	000087b7          	lui	a5,0x8
   14dc8:	fff78793          	addi	a5,a5,-1 # 7fff <main-0x8095>
   14dcc:	00f67533          	and	a0,a2,a5
   14dd0:	0ef51063          	bne	a0,a5,14eb0 <ediv+0x19c>
   14dd4:	01248693          	addi	a3,s1,18
   14dd8:	00048793          	mv	a5,s1
   14ddc:	0007d703          	lhu	a4,0(a5)
   14de0:	00278793          	addi	a5,a5,2
   14de4:	0c071663          	bnez	a4,14eb0 <ediv+0x19c>
   14de8:	fed79ae3          	bne	a5,a3,14ddc <ediv+0xc8>
   14dec:	0129d703          	lhu	a4,18(s3)
   14df0:	fff74793          	not	a5,a4
   14df4:	01179693          	slli	a3,a5,0x11
   14df8:	14069263          	bnez	a3,14f3c <ediv+0x228>
   14dfc:	01298693          	addi	a3,s3,18
   14e00:	00098793          	mv	a5,s3
   14e04:	0007d583          	lhu	a1,0(a5)
   14e08:	00278793          	addi	a5,a5,2
   14e0c:	48059c63          	bnez	a1,152a4 <ediv+0x590>
   14e10:	fed79ae3          	bne	a5,a3,14e04 <ediv+0xf0>
   14e14:	01040713          	addi	a4,s0,16
   14e18:	00040793          	mv	a5,s0
   14e1c:	00278793          	addi	a5,a5,2
   14e20:	fe079f23          	sh	zero,-2(a5)
   14e24:	fee79ce3          	bne	a5,a4,14e1c <ediv+0x108>
   14e28:	ffffc7b7          	lui	a5,0xffffc
   14e2c:	00f41823          	sh	a5,16(s0)
   14e30:	ffff87b7          	lui	a5,0xffff8
   14e34:	fff7c793          	not	a5,a5
   14e38:	00f41923          	sh	a5,18(s0)
   14e3c:	0ac12083          	lw	ra,172(sp)
   14e40:	0a812403          	lw	s0,168(sp)
   14e44:	0a412483          	lw	s1,164(sp)
   14e48:	0a012903          	lw	s2,160(sp)
   14e4c:	09c12983          	lw	s3,156(sp)
   14e50:	09812a03          	lw	s4,152(sp)
   14e54:	09412a83          	lw	s5,148(sp)
   14e58:	09012b03          	lw	s6,144(sp)
   14e5c:	08c12b83          	lw	s7,140(sp)
   14e60:	08812c03          	lw	s8,136(sp)
   14e64:	08412c83          	lw	s9,132(sp)
   14e68:	08012d03          	lw	s10,128(sp)
   14e6c:	07c12d83          	lw	s11,124(sp)
   14e70:	0b010113          	addi	sp,sp,176
   14e74:	00008067          	ret
   14e78:	01448713          	addi	a4,s1,20
   14e7c:	0004d783          	lhu	a5,0(s1)
   14e80:	00248493          	addi	s1,s1,2
   14e84:	00240413          	addi	s0,s0,2
   14e88:	fef41f23          	sh	a5,-2(s0)
   14e8c:	fee498e3          	bne	s1,a4,14e7c <ediv+0x168>
   14e90:	fadff06f          	j	14e3c <ediv+0x128>
   14e94:	01440713          	addi	a4,s0,20
   14e98:	0009d783          	lhu	a5,0(s3)
   14e9c:	00240413          	addi	s0,s0,2
   14ea0:	00298993          	addi	s3,s3,2
   14ea4:	fef41f23          	sh	a5,-2(s0)
   14ea8:	fee418e3          	bne	s0,a4,14e98 <ediv+0x184>
   14eac:	f91ff06f          	j	14e3c <ediv+0x128>
   14eb0:	0129d703          	lhu	a4,18(s3)
   14eb4:	fff74793          	not	a5,a4
   14eb8:	01179693          	slli	a3,a5,0x11
   14ebc:	0a069663          	bnez	a3,14f68 <ediv+0x254>
   14ec0:	00000813          	li	a6,0
   14ec4:	01298693          	addi	a3,s3,18
   14ec8:	00098793          	mv	a5,s3
   14ecc:	0007d583          	lhu	a1,0(a5) # ffff8000 <__BSS_END__+0xfffd0518>
   14ed0:	00278793          	addi	a5,a5,2
   14ed4:	06059263          	bnez	a1,14f38 <ediv+0x224>
   14ed8:	fed79ae3          	bne	a5,a3,14ecc <ediv+0x1b8>
   14edc:	000087b7          	lui	a5,0x8
   14ee0:	fff78793          	addi	a5,a5,-1 # 7fff <main-0x8095>
   14ee4:	0cf50a63          	beq	a0,a5,14fb8 <ediv+0x2a4>
   14ee8:	00f65613          	srli	a2,a2,0xf
   14eec:	0009d783          	lhu	a5,0(s3)
   14ef0:	00298993          	addi	s3,s3,2
   14ef4:	3a079063          	bnez	a5,15294 <ediv+0x580>
   14ef8:	fed99ae3          	bne	s3,a3,14eec <ediv+0x1d8>
   14efc:	00f75793          	srli	a5,a4,0xf
   14f00:	00c7c7b3          	xor	a5,a5,a2
   14f04:	00f79793          	slli	a5,a5,0xf
   14f08:	00f41923          	sh	a5,18(s0)
   14f0c:	01240713          	addi	a4,s0,18
   14f10:	00040793          	mv	a5,s0
   14f14:	00278793          	addi	a5,a5,2
   14f18:	fe079f23          	sh	zero,-2(a5)
   14f1c:	fee79ce3          	bne	a5,a4,14f14 <ediv+0x200>
   14f20:	01245783          	lhu	a5,18(s0)
   14f24:	00008737          	lui	a4,0x8
   14f28:	fff70713          	addi	a4,a4,-1 # 7fff <main-0x8095>
   14f2c:	00e7e7b3          	or	a5,a5,a4
   14f30:	00f41923          	sh	a5,18(s0)
   14f34:	f09ff06f          	j	14e3c <ediv+0x128>
   14f38:	02080863          	beqz	a6,14f68 <ediv+0x254>
   14f3c:	01440793          	addi	a5,s0,20
   14f40:	00240413          	addi	s0,s0,2
   14f44:	fe041f23          	sh	zero,-2(s0)
   14f48:	fef41ce3          	bne	s0,a5,14f40 <ediv+0x22c>
   14f4c:	ef1ff06f          	j	14e3c <ediv+0x128>
   14f50:	00011597          	auipc	a1,0x11
   14f54:	f8858593          	addi	a1,a1,-120 # 25ed8 <ezero>
   14f58:	00098513          	mv	a0,s3
   14f5c:	d18ff0ef          	jal	ra,14474 <ecmp>
   14f60:	e60510e3          	bnez	a0,14dc0 <ediv+0xac>
   14f64:	eb1ff06f          	j	14e14 <ediv+0x100>
   14f68:	01c10593          	addi	a1,sp,28
   14f6c:	00048513          	mv	a0,s1
   14f70:	c50ff0ef          	jal	ra,143c0 <emovi>
   14f74:	03810593          	addi	a1,sp,56
   14f78:	00098513          	mv	a0,s3
   14f7c:	c44ff0ef          	jal	ra,143c0 <emovi>
   14f80:	03a15b03          	lhu	s6,58(sp)
   14f84:	01e15c03          	lhu	s8,30(sp)
   14f88:	040b1463          	bnez	s6,14fd0 <ediv+0x2bc>
   14f8c:	03a10793          	addi	a5,sp,58
   14f90:	05010c93          	addi	s9,sp,80
   14f94:	0007d703          	lhu	a4,0(a5)
   14f98:	00278793          	addi	a5,a5,2
   14f9c:	2c071863          	bnez	a4,1526c <ediv+0x558>
   14fa0:	fefc9ae3          	bne	s9,a5,14f94 <ediv+0x280>
   14fa4:	01440793          	addi	a5,s0,20
   14fa8:	00240413          	addi	s0,s0,2
   14fac:	fe041f23          	sh	zero,-2(s0)
   14fb0:	fef41ce3          	bne	s0,a5,14fa8 <ediv+0x294>
   14fb4:	e89ff06f          	j	14e3c <ediv+0x128>
   14fb8:	01248593          	addi	a1,s1,18
   14fbc:	0004d783          	lhu	a5,0(s1)
   14fc0:	00248493          	addi	s1,s1,2
   14fc4:	2c079c63          	bnez	a5,1529c <ediv+0x588>
   14fc8:	feb49ae3          	bne	s1,a1,14fbc <ediv+0x2a8>
   14fcc:	f1dff06f          	j	14ee8 <ediv+0x1d4>
   14fd0:	01612223          	sw	s6,4(sp)
   14fd4:	040c1663          	bnez	s8,15020 <ediv+0x30c>
   14fd8:	01e10793          	addi	a5,sp,30
   14fdc:	03410693          	addi	a3,sp,52
   14fe0:	0007d703          	lhu	a4,0(a5)
   14fe4:	00278793          	addi	a5,a5,2
   14fe8:	28071c63          	bnez	a4,15280 <ediv+0x56c>
   14fec:	fed79ae3          	bne	a5,a3,14fe0 <ediv+0x2cc>
   14ff0:	01c15683          	lhu	a3,28(sp)
   14ff4:	03815603          	lhu	a2,56(sp)
   14ff8:	01240713          	addi	a4,s0,18
   14ffc:	00040793          	mv	a5,s0
   15000:	40c686b3          	sub	a3,a3,a2
   15004:	00d036b3          	snez	a3,a3
   15008:	00f69693          	slli	a3,a3,0xf
   1500c:	00d41923          	sh	a3,18(s0)
   15010:	00278793          	addi	a5,a5,2
   15014:	fe079f23          	sh	zero,-2(a5)
   15018:	fee79ce3          	bne	a5,a4,15010 <ediv+0x2fc>
   1501c:	f05ff06f          	j	14f20 <ediv+0x20c>
   15020:	01812423          	sw	s8,8(sp)
   15024:	03490793          	addi	a5,s2,52
   15028:	00f12623          	sw	a5,12(sp)
   1502c:	03812783          	lw	a5,56(sp)
   15030:	03890493          	addi	s1,s2,56
   15034:	04e90993          	addi	s3,s2,78
   15038:	02f92a23          	sw	a5,52(s2)
   1503c:	00048793          	mv	a5,s1
   15040:	00278793          	addi	a5,a5,2
   15044:	fe079f23          	sh	zero,-2(a5)
   15048:	ff379ce3          	bne	a5,s3,15040 <ediv+0x32c>
   1504c:	03810513          	addi	a0,sp,56
   15050:	e0dfe0ef          	jal	ra,13e5c <eshdn1>
   15054:	02215b83          	lhu	s7,34(sp)
   15058:	00010a37          	lui	s4,0x10
   1505c:	03a10d13          	addi	s10,sp,58
   15060:	010b9a93          	slli	s5,s7,0x10
   15064:	417a8ab3          	sub	s5,s5,s7
   15068:	05010c93          	addi	s9,sp,80
   1506c:	fffa0a13          	addi	s4,s4,-1 # ffff <main-0x95>
   15070:	06e10d93          	addi	s11,sp,110
   15074:	05610c13          	addi	s8,sp,86
   15078:	03c15503          	lhu	a0,60(sp)
   1507c:	03e15783          	lhu	a5,62(sp)
   15080:	000a0b13          	mv	s6,s4
   15084:	01051513          	slli	a0,a0,0x10
   15088:	00f50533          	add	a0,a0,a5
   1508c:	00aaea63          	bltu	s5,a0,150a0 <ediv+0x38c>
   15090:	000b8593          	mv	a1,s7
   15094:	1f9100ef          	jal	ra,25a8c <__hidden___udivsi3>
   15098:	01051b13          	slli	s6,a0,0x10
   1509c:	010b5b13          	srli	s6,s6,0x10
   150a0:	05410613          	addi	a2,sp,84
   150a4:	01c10593          	addi	a1,sp,28
   150a8:	000b0513          	mv	a0,s6
   150ac:	e59fe0ef          	jal	ra,13f04 <m16m>
   150b0:	03c10713          	addi	a4,sp,60
   150b4:	05810793          	addi	a5,sp,88
   150b8:	0007d603          	lhu	a2,0(a5)
   150bc:	00075683          	lhu	a3,0(a4)
   150c0:	00278793          	addi	a5,a5,2
   150c4:	00270713          	addi	a4,a4,2
   150c8:	0ed61863          	bne	a2,a3,151b8 <ediv+0x4a4>
   150cc:	ffb796e3          	bne	a5,s11,150b8 <ediv+0x3a4>
   150d0:	00000693          	li	a3,0
   150d4:	06c10613          	addi	a2,sp,108
   150d8:	000c8793          	mv	a5,s9
   150dc:	0007d703          	lhu	a4,0(a5)
   150e0:	00065583          	lhu	a1,0(a2)
   150e4:	ffe78793          	addi	a5,a5,-2
   150e8:	ffe60613          	addi	a2,a2,-2
   150ec:	40b70733          	sub	a4,a4,a1
   150f0:	40d70733          	sub	a4,a4,a3
   150f4:	01075693          	srli	a3,a4,0x10
   150f8:	00e79123          	sh	a4,2(a5)
   150fc:	0016f693          	andi	a3,a3,1
   15100:	fda79ee3          	bne	a5,s10,150dc <ediv+0x3c8>
   15104:	01649023          	sh	s6,0(s1)
   15108:	03c10793          	addi	a5,sp,60
   1510c:	0027d703          	lhu	a4,2(a5)
   15110:	00278793          	addi	a5,a5,2
   15114:	fee79f23          	sh	a4,-2(a5)
   15118:	ff979ae3          	bne	a5,s9,1510c <ediv+0x3f8>
   1511c:	04011823          	sh	zero,80(sp)
   15120:	00248493          	addi	s1,s1,2
   15124:	f4999ae3          	bne	s3,s1,15078 <ediv+0x364>
   15128:	00000713          	li	a4,0
   1512c:	03c10793          	addi	a5,sp,60
   15130:	05210693          	addi	a3,sp,82
   15134:	0007d603          	lhu	a2,0(a5)
   15138:	00278793          	addi	a5,a5,2
   1513c:	00c76733          	or	a4,a4,a2
   15140:	fed79ae3          	bne	a5,a3,15134 <ediv+0x420>
   15144:	00c12483          	lw	s1,12(sp)
   15148:	00e035b3          	snez	a1,a4
   1514c:	03810793          	addi	a5,sp,56
   15150:	0004d703          	lhu	a4,0(s1)
   15154:	00278793          	addi	a5,a5,2
   15158:	00248493          	addi	s1,s1,2
   1515c:	fee79f23          	sh	a4,-2(a5)
   15160:	fef698e3          	bne	a3,a5,15150 <ediv+0x43c>
   15164:	00412783          	lw	a5,4(sp)
   15168:	00812703          	lw	a4,8(sp)
   1516c:	000046b7          	lui	a3,0x4
   15170:	fff68693          	addi	a3,a3,-1 # 3fff <main-0xc095>
   15174:	40e78b33          	sub	s6,a5,a4
   15178:	03810513          	addi	a0,sp,56
   1517c:	00090793          	mv	a5,s2
   15180:	04000713          	li	a4,64
   15184:	00db06b3          	add	a3,s6,a3
   15188:	00000613          	li	a2,0
   1518c:	c34ff0ef          	jal	ra,145c0 <emdnorm>
   15190:	03815703          	lhu	a4,56(sp)
   15194:	01c15783          	lhu	a5,28(sp)
   15198:	00040593          	mv	a1,s0
   1519c:	03810513          	addi	a0,sp,56
   151a0:	40e787b3          	sub	a5,a5,a4
   151a4:	00f037b3          	snez	a5,a5
   151a8:	40f007b3          	neg	a5,a5
   151ac:	02f11c23          	sh	a5,56(sp)
   151b0:	e25fe0ef          	jal	ra,13fd4 <emovo.constprop.0>
   151b4:	c89ff06f          	j	14e3c <ediv+0x128>
   151b8:	f0c6fce3          	bgeu	a3,a2,150d0 <ediv+0x3bc>
   151bc:	fffb0793          	addi	a5,s6,-1
   151c0:	01079513          	slli	a0,a5,0x10
   151c4:	01055513          	srli	a0,a0,0x10
   151c8:	00000693          	li	a3,0
   151cc:	03410613          	addi	a2,sp,52
   151d0:	06c10713          	addi	a4,sp,108
   151d4:	00075783          	lhu	a5,0(a4)
   151d8:	00065583          	lhu	a1,0(a2)
   151dc:	ffe70713          	addi	a4,a4,-2
   151e0:	ffe60613          	addi	a2,a2,-2
   151e4:	40b787b3          	sub	a5,a5,a1
   151e8:	40d787b3          	sub	a5,a5,a3
   151ec:	0107d693          	srli	a3,a5,0x10
   151f0:	00f71123          	sh	a5,2(a4)
   151f4:	0016f693          	andi	a3,a3,1
   151f8:	fd871ee3          	bne	a4,s8,151d4 <ediv+0x4c0>
   151fc:	03c10713          	addi	a4,sp,60
   15200:	05810793          	addi	a5,sp,88
   15204:	0007d603          	lhu	a2,0(a5)
   15208:	00075683          	lhu	a3,0(a4)
   1520c:	00278793          	addi	a5,a5,2
   15210:	00270713          	addi	a4,a4,2
   15214:	00d61863          	bne	a2,a3,15224 <ediv+0x510>
   15218:	ffb796e3          	bne	a5,s11,15204 <ediv+0x4f0>
   1521c:	00050b13          	mv	s6,a0
   15220:	eb1ff06f          	j	150d0 <ediv+0x3bc>
   15224:	fec6fce3          	bgeu	a3,a2,1521c <ediv+0x508>
   15228:	ffeb0313          	addi	t1,s6,-2
   1522c:	01031b13          	slli	s6,t1,0x10
   15230:	010b5b13          	srli	s6,s6,0x10
   15234:	00000693          	li	a3,0
   15238:	03410613          	addi	a2,sp,52
   1523c:	06c10713          	addi	a4,sp,108
   15240:	00075783          	lhu	a5,0(a4)
   15244:	00065583          	lhu	a1,0(a2)
   15248:	ffe70713          	addi	a4,a4,-2
   1524c:	ffe60613          	addi	a2,a2,-2
   15250:	40b787b3          	sub	a5,a5,a1
   15254:	40d787b3          	sub	a5,a5,a3
   15258:	0107d693          	srli	a3,a5,0x10
   1525c:	00f71123          	sh	a5,2(a4)
   15260:	0016f693          	andi	a3,a3,1
   15264:	fd871ee3          	bne	a4,s8,15240 <ediv+0x52c>
   15268:	e69ff06f          	j	150d0 <ediv+0x3bc>
   1526c:	03810513          	addi	a0,sp,56
   15270:	e21fe0ef          	jal	ra,14090 <enormlz>
   15274:	40a007b3          	neg	a5,a0
   15278:	00f12223          	sw	a5,4(sp)
   1527c:	d59ff06f          	j	14fd4 <ediv+0x2c0>
   15280:	01c10513          	addi	a0,sp,28
   15284:	e0dfe0ef          	jal	ra,14090 <enormlz>
   15288:	40a007b3          	neg	a5,a0
   1528c:	00f12423          	sw	a5,8(sp)
   15290:	d95ff06f          	j	15024 <ediv+0x310>
   15294:	00000793          	li	a5,0
   15298:	c69ff06f          	j	14f00 <ediv+0x1ec>
   1529c:	00000613          	li	a2,0
   152a0:	c4dff06f          	j	14eec <ediv+0x1d8>
   152a4:	00100813          	li	a6,1
   152a8:	c21ff06f          	j	14ec8 <ediv+0x1b4>

000152ac <emul>:
   152ac:	01255803          	lhu	a6,18(a0)
   152b0:	00008737          	lui	a4,0x8
   152b4:	f7010113          	addi	sp,sp,-144
   152b8:	fff70713          	addi	a4,a4,-1 # 7fff <main-0x8095>
   152bc:	08812423          	sw	s0,136(sp)
   152c0:	08912223          	sw	s1,132(sp)
   152c4:	09212023          	sw	s2,128(sp)
   152c8:	07512a23          	sw	s5,116(sp)
   152cc:	00050493          	mv	s1,a0
   152d0:	08112623          	sw	ra,140(sp)
   152d4:	07312e23          	sw	s3,124(sp)
   152d8:	07412c23          	sw	s4,120(sp)
   152dc:	07612823          	sw	s6,112(sp)
   152e0:	07712623          	sw	s7,108(sp)
   152e4:	07812423          	sw	s8,104(sp)
   152e8:	07912223          	sw	s9,100(sp)
   152ec:	07a12023          	sw	s10,96(sp)
   152f0:	00e87533          	and	a0,a6,a4
   152f4:	00058913          	mv	s2,a1
   152f8:	00060413          	mv	s0,a2
   152fc:	00068a93          	mv	s5,a3
   15300:	16e51e63          	bne	a0,a4,1547c <emul+0x1d0>
   15304:	01248993          	addi	s3,s1,18
   15308:	00048713          	mv	a4,s1
   1530c:	00075603          	lhu	a2,0(a4)
   15310:	00270713          	addi	a4,a4,2
   15314:	1e061c63          	bnez	a2,1550c <emul+0x260>
   15318:	ff371ae3          	bne	a4,s3,1530c <emul+0x60>
   1531c:	01295603          	lhu	a2,18(s2)
   15320:	fff64793          	not	a5,a2
   15324:	01179713          	slli	a4,a5,0x11
   15328:	16070063          	beqz	a4,15488 <emul+0x1dc>
   1532c:	00048793          	mv	a5,s1
   15330:	0007d703          	lhu	a4,0(a5)
   15334:	00278793          	addi	a5,a5,2
   15338:	28071063          	bnez	a4,155b8 <emul+0x30c>
   1533c:	ff379ae3          	bne	a5,s3,15330 <emul+0x84>
   15340:	00011597          	auipc	a1,0x11
   15344:	b9858593          	addi	a1,a1,-1128 # 25ed8 <ezero>
   15348:	00090513          	mv	a0,s2
   1534c:	928ff0ef          	jal	ra,14474 <ecmp>
   15350:	28050063          	beqz	a0,155d0 <emul+0x324>
   15354:	01295603          	lhu	a2,18(s2)
   15358:	00008737          	lui	a4,0x8
   1535c:	fff70713          	addi	a4,a4,-1 # 7fff <main-0x8095>
   15360:	00e676b3          	and	a3,a2,a4
   15364:	01290793          	addi	a5,s2,18
   15368:	40e69263          	bne	a3,a4,1576c <emul+0x4c0>
   1536c:	00090713          	mv	a4,s2
   15370:	00075683          	lhu	a3,0(a4)
   15374:	00270713          	addi	a4,a4,2
   15378:	1e069c63          	bnez	a3,15570 <emul+0x2c4>
   1537c:	fef71ae3          	bne	a4,a5,15370 <emul+0xc4>
   15380:	00011597          	auipc	a1,0x11
   15384:	b5858593          	addi	a1,a1,-1192 # 25ed8 <ezero>
   15388:	00048513          	mv	a0,s1
   1538c:	8e8ff0ef          	jal	ra,14474 <ecmp>
   15390:	24050063          	beqz	a0,155d0 <emul+0x324>
   15394:	0124d803          	lhu	a6,18(s1)
   15398:	01295603          	lhu	a2,18(s2)
   1539c:	000087b7          	lui	a5,0x8
   153a0:	fff78793          	addi	a5,a5,-1 # 7fff <main-0x8095>
   153a4:	00f87733          	and	a4,a6,a5
   153a8:	00f676b3          	and	a3,a2,a5
   153ac:	1cf70c63          	beq	a4,a5,15584 <emul+0x2d8>
   153b0:	00068593          	mv	a1,a3
   153b4:	00070693          	mv	a3,a4
   153b8:	000087b7          	lui	a5,0x8
   153bc:	fff78793          	addi	a5,a5,-1 # 7fff <main-0x8095>
   153c0:	0ef59c63          	bne	a1,a5,154b8 <emul+0x20c>
   153c4:	01290793          	addi	a5,s2,18
   153c8:	00090713          	mv	a4,s2
   153cc:	00075583          	lhu	a1,0(a4)
   153d0:	00270713          	addi	a4,a4,2
   153d4:	0e059263          	bnez	a1,154b8 <emul+0x20c>
   153d8:	fee79ae3          	bne	a5,a4,153cc <emul+0x120>
   153dc:	00008737          	lui	a4,0x8
   153e0:	fff70713          	addi	a4,a4,-1 # 7fff <main-0x8095>
   153e4:	01248993          	addi	s3,s1,18
   153e8:	20e69a63          	bne	a3,a4,155fc <emul+0x350>
   153ec:	0004d783          	lhu	a5,0(s1)
   153f0:	00248493          	addi	s1,s1,2
   153f4:	20079c63          	bnez	a5,1560c <emul+0x360>
   153f8:	fe999ae3          	bne	s3,s1,153ec <emul+0x140>
   153fc:	00f85813          	srli	a6,a6,0xf
   15400:	000087b7          	lui	a5,0x8
   15404:	fff78793          	addi	a5,a5,-1 # 7fff <main-0x8095>
   15408:	18f68c63          	beq	a3,a5,155a0 <emul+0x2f4>
   1540c:	00f65793          	srli	a5,a2,0xf
   15410:	0107c7b3          	xor	a5,a5,a6
   15414:	00f79793          	slli	a5,a5,0xf
   15418:	00f41923          	sh	a5,18(s0)
   1541c:	01240713          	addi	a4,s0,18
   15420:	00040793          	mv	a5,s0
   15424:	00278793          	addi	a5,a5,2
   15428:	fe079f23          	sh	zero,-2(a5)
   1542c:	fee79ce3          	bne	a5,a4,15424 <emul+0x178>
   15430:	01245783          	lhu	a5,18(s0)
   15434:	00008737          	lui	a4,0x8
   15438:	fff70713          	addi	a4,a4,-1 # 7fff <main-0x8095>
   1543c:	00e7e7b3          	or	a5,a5,a4
   15440:	00f41923          	sh	a5,18(s0)
   15444:	08c12083          	lw	ra,140(sp)
   15448:	08812403          	lw	s0,136(sp)
   1544c:	08412483          	lw	s1,132(sp)
   15450:	08012903          	lw	s2,128(sp)
   15454:	07c12983          	lw	s3,124(sp)
   15458:	07812a03          	lw	s4,120(sp)
   1545c:	07412a83          	lw	s5,116(sp)
   15460:	07012b03          	lw	s6,112(sp)
   15464:	06c12b83          	lw	s7,108(sp)
   15468:	06812c03          	lw	s8,104(sp)
   1546c:	06412c83          	lw	s9,100(sp)
   15470:	06012d03          	lw	s10,96(sp)
   15474:	09010113          	addi	sp,sp,144
   15478:	00008067          	ret
   1547c:	0125d603          	lhu	a2,18(a1)
   15480:	00e677b3          	and	a5,a2,a4
   15484:	02e79a63          	bne	a5,a4,154b8 <emul+0x20c>
   15488:	01290793          	addi	a5,s2,18
   1548c:	00090713          	mv	a4,s2
   15490:	00075683          	lhu	a3,0(a4)
   15494:	00270713          	addi	a4,a4,2
   15498:	08069863          	bnez	a3,15528 <emul+0x27c>
   1549c:	fef71ae3          	bne	a4,a5,15490 <emul+0x1e4>
   154a0:	00008737          	lui	a4,0x8
   154a4:	fff70713          	addi	a4,a4,-1 # 7fff <main-0x8095>
   154a8:	01248993          	addi	s3,s1,18
   154ac:	e8e500e3          	beq	a0,a4,1532c <emul+0x80>
   154b0:	00e676b3          	and	a3,a2,a4
   154b4:	eae68ce3          	beq	a3,a4,1536c <emul+0xc0>
   154b8:	00048513          	mv	a0,s1
   154bc:	00c10593          	addi	a1,sp,12
   154c0:	f01fe0ef          	jal	ra,143c0 <emovi>
   154c4:	00090513          	mv	a0,s2
   154c8:	02810593          	addi	a1,sp,40
   154cc:	ef5fe0ef          	jal	ra,143c0 <emovi>
   154d0:	00e15903          	lhu	s2,14(sp)
   154d4:	02a15483          	lhu	s1,42(sp)
   154d8:	06090663          	beqz	s2,15544 <emul+0x298>
   154dc:	14049463          	bnez	s1,15624 <emul+0x378>
   154e0:	02a10793          	addi	a5,sp,42
   154e4:	04010693          	addi	a3,sp,64
   154e8:	0007d703          	lhu	a4,0(a5)
   154ec:	00278793          	addi	a5,a5,2
   154f0:	26071463          	bnez	a4,15758 <emul+0x4ac>
   154f4:	fed79ae3          	bne	a5,a3,154e8 <emul+0x23c>
   154f8:	01440793          	addi	a5,s0,20
   154fc:	00240413          	addi	s0,s0,2
   15500:	fe041f23          	sh	zero,-2(s0)
   15504:	fe879ce3          	bne	a5,s0,154fc <emul+0x250>
   15508:	f3dff06f          	j	15444 <emul+0x198>
   1550c:	01440713          	addi	a4,s0,20
   15510:	0004d783          	lhu	a5,0(s1)
   15514:	00240413          	addi	s0,s0,2
   15518:	00248493          	addi	s1,s1,2
   1551c:	fef41f23          	sh	a5,-2(s0)
   15520:	fee418e3          	bne	s0,a4,15510 <emul+0x264>
   15524:	f21ff06f          	j	15444 <emul+0x198>
   15528:	01490713          	addi	a4,s2,20
   1552c:	00095783          	lhu	a5,0(s2)
   15530:	00290913          	addi	s2,s2,2
   15534:	00240413          	addi	s0,s0,2
   15538:	fef41f23          	sh	a5,-2(s0)
   1553c:	ff2718e3          	bne	a4,s2,1552c <emul+0x280>
   15540:	f05ff06f          	j	15444 <emul+0x198>
   15544:	00e10793          	addi	a5,sp,14
   15548:	02410693          	addi	a3,sp,36
   1554c:	0007d703          	lhu	a4,0(a5)
   15550:	00278793          	addi	a5,a5,2
   15554:	1e071a63          	bnez	a4,15748 <emul+0x49c>
   15558:	fef69ae3          	bne	a3,a5,1554c <emul+0x2a0>
   1555c:	01440793          	addi	a5,s0,20
   15560:	00240413          	addi	s0,s0,2
   15564:	fe041f23          	sh	zero,-2(s0)
   15568:	fef41ce3          	bne	s0,a5,15560 <emul+0x2b4>
   1556c:	ed9ff06f          	j	15444 <emul+0x198>
   15570:	0124d803          	lhu	a6,18(s1)
   15574:	00008737          	lui	a4,0x8
   15578:	fff70713          	addi	a4,a4,-1 # 7fff <main-0x8095>
   1557c:	00e876b3          	and	a3,a6,a4
   15580:	e4e694e3          	bne	a3,a4,153c8 <emul+0x11c>
   15584:	01248993          	addi	s3,s1,18
   15588:	00048793          	mv	a5,s1
   1558c:	0007d703          	lhu	a4,0(a5)
